   1              	 .syntax unified
   2              	 .cpu cortex-m4
   3              	 .eabi_attribute 27,3
   4              	 .fpu fpv4-sp-d16
   5              	 .eabi_attribute 20,1
   6              	 .eabi_attribute 21,1
   7              	 .eabi_attribute 23,3
   8              	 .eabi_attribute 24,1
   9              	 .eabi_attribute 25,1
  10              	 .eabi_attribute 26,1
  11              	 .eabi_attribute 30,6
  12              	 .eabi_attribute 34,1
  13              	 .eabi_attribute 18,4
  14              	 .thumb
  15              	 .file "main.c"
  16              	 .text
  17              	.Ltext0:
  18              	 .cfi_sections .debug_frame
  19              	 .section .text.XMC_GPIO_SetOutputHigh,"ax",%progbits
  20              	 .align 2
  21              	 .thumb
  22              	 .thumb_func
  24              	XMC_GPIO_SetOutputHigh:
  25              	.LFB139:
  26              	 .file 1 "C:/Workspaces/DAVE-4.4.2-64Bit/GarbageCollector/XMC4200_GC/Libraries/XMCLib/inc/xmc_gpio.h"
   1:C:/Workspaces/DAVE-4.4.2-64Bit/GarbageCollector/XMC4200_GC/Libraries/XMCLib/inc\xmc_gpio.h **** /**
   2:C:/Workspaces/DAVE-4.4.2-64Bit/GarbageCollector/XMC4200_GC/Libraries/XMCLib/inc\xmc_gpio.h ****  * @file xmc_gpio.h
   3:C:/Workspaces/DAVE-4.4.2-64Bit/GarbageCollector/XMC4200_GC/Libraries/XMCLib/inc\xmc_gpio.h ****  * @date 2015-06-20
   4:C:/Workspaces/DAVE-4.4.2-64Bit/GarbageCollector/XMC4200_GC/Libraries/XMCLib/inc\xmc_gpio.h ****  *
   5:C:/Workspaces/DAVE-4.4.2-64Bit/GarbageCollector/XMC4200_GC/Libraries/XMCLib/inc\xmc_gpio.h ****  * @cond
   6:C:/Workspaces/DAVE-4.4.2-64Bit/GarbageCollector/XMC4200_GC/Libraries/XMCLib/inc\xmc_gpio.h ****  **************************************************************************************************
   7:C:/Workspaces/DAVE-4.4.2-64Bit/GarbageCollector/XMC4200_GC/Libraries/XMCLib/inc\xmc_gpio.h ****  * XMClib v2.1.24 - XMC Peripheral Driver Library 
   8:C:/Workspaces/DAVE-4.4.2-64Bit/GarbageCollector/XMC4200_GC/Libraries/XMCLib/inc\xmc_gpio.h ****  *
   9:C:/Workspaces/DAVE-4.4.2-64Bit/GarbageCollector/XMC4200_GC/Libraries/XMCLib/inc\xmc_gpio.h ****  * Copyright (c) 2015-2019, Infineon Technologies AG
  10:C:/Workspaces/DAVE-4.4.2-64Bit/GarbageCollector/XMC4200_GC/Libraries/XMCLib/inc\xmc_gpio.h ****  * All rights reserved.                        
  11:C:/Workspaces/DAVE-4.4.2-64Bit/GarbageCollector/XMC4200_GC/Libraries/XMCLib/inc\xmc_gpio.h ****  *                                             
  12:C:/Workspaces/DAVE-4.4.2-64Bit/GarbageCollector/XMC4200_GC/Libraries/XMCLib/inc\xmc_gpio.h ****  * Redistribution and use in source and binary forms, with or without modification,are permitted pr
  13:C:/Workspaces/DAVE-4.4.2-64Bit/GarbageCollector/XMC4200_GC/Libraries/XMCLib/inc\xmc_gpio.h ****  * following conditions are met:   
  14:C:/Workspaces/DAVE-4.4.2-64Bit/GarbageCollector/XMC4200_GC/Libraries/XMCLib/inc\xmc_gpio.h ****  *                                                                              
  15:C:/Workspaces/DAVE-4.4.2-64Bit/GarbageCollector/XMC4200_GC/Libraries/XMCLib/inc\xmc_gpio.h ****  * Redistributions of source code must retain the above copyright notice, this list of conditions a
  16:C:/Workspaces/DAVE-4.4.2-64Bit/GarbageCollector/XMC4200_GC/Libraries/XMCLib/inc\xmc_gpio.h ****  * disclaimer.                        
  17:C:/Workspaces/DAVE-4.4.2-64Bit/GarbageCollector/XMC4200_GC/Libraries/XMCLib/inc\xmc_gpio.h ****  * 
  18:C:/Workspaces/DAVE-4.4.2-64Bit/GarbageCollector/XMC4200_GC/Libraries/XMCLib/inc\xmc_gpio.h ****  * Redistributions in binary form must reproduce the above copyright notice, this list of condition
  19:C:/Workspaces/DAVE-4.4.2-64Bit/GarbageCollector/XMC4200_GC/Libraries/XMCLib/inc\xmc_gpio.h ****  * disclaimer in the documentation and/or other materials provided with the distribution.          
  20:C:/Workspaces/DAVE-4.4.2-64Bit/GarbageCollector/XMC4200_GC/Libraries/XMCLib/inc\xmc_gpio.h ****  * 
  21:C:/Workspaces/DAVE-4.4.2-64Bit/GarbageCollector/XMC4200_GC/Libraries/XMCLib/inc\xmc_gpio.h ****  * Neither the name of the copyright holders nor the names of its contributors may be used to endor
  22:C:/Workspaces/DAVE-4.4.2-64Bit/GarbageCollector/XMC4200_GC/Libraries/XMCLib/inc\xmc_gpio.h ****  * products derived from this software without specific prior written permission.                  
  23:C:/Workspaces/DAVE-4.4.2-64Bit/GarbageCollector/XMC4200_GC/Libraries/XMCLib/inc\xmc_gpio.h ****  *                                                                              
  24:C:/Workspaces/DAVE-4.4.2-64Bit/GarbageCollector/XMC4200_GC/Libraries/XMCLib/inc\xmc_gpio.h ****  * THIS SOFTWARE IS PROVIDED BY THE COPYRIGHT HOLDERS AND CONTRIBUTORS "AS IS" AND ANY EXPRESS OR I
  25:C:/Workspaces/DAVE-4.4.2-64Bit/GarbageCollector/XMC4200_GC/Libraries/XMCLib/inc\xmc_gpio.h ****  * INCLUDING, BUT NOT LIMITED TO, THE IMPLIED WARRANTIES OF MERCHANTABILITY AND FITNESS FOR A PARTI
  26:C:/Workspaces/DAVE-4.4.2-64Bit/GarbageCollector/XMC4200_GC/Libraries/XMCLib/inc\xmc_gpio.h ****  * DISCLAIMED. IN NO EVENT SHALL THE COPYRIGHT HOLDER OR CONTRIBUTORS BE LIABLE  FOR ANY DIRECT, IN
  27:C:/Workspaces/DAVE-4.4.2-64Bit/GarbageCollector/XMC4200_GC/Libraries/XMCLib/inc\xmc_gpio.h ****  * SPECIAL, EXEMPLARY, OR CONSEQUENTIAL DAMAGES (INCLUDING, BUT NOT LIMITED TO, PROCUREMENT OF SUBS
  28:C:/Workspaces/DAVE-4.4.2-64Bit/GarbageCollector/XMC4200_GC/Libraries/XMCLib/inc\xmc_gpio.h ****  * SERVICES; LOSS OF USE, DATA, OR PROFITS; OR BUSINESS INTERRUPTION) HOWEVER CAUSED AND ON ANY THE
  29:C:/Workspaces/DAVE-4.4.2-64Bit/GarbageCollector/XMC4200_GC/Libraries/XMCLib/inc\xmc_gpio.h ****  * WHETHER IN CONTRACT, STRICT LIABILITY,OR TORT (INCLUDING NEGLIGENCE OR OTHERWISE) ARISING IN ANY
  30:C:/Workspaces/DAVE-4.4.2-64Bit/GarbageCollector/XMC4200_GC/Libraries/XMCLib/inc\xmc_gpio.h ****  * OF THIS SOFTWARE, EVEN IF ADVISED OF THE POSSIBILITY OF SUCH DAMAGE.                            
  31:C:/Workspaces/DAVE-4.4.2-64Bit/GarbageCollector/XMC4200_GC/Libraries/XMCLib/inc\xmc_gpio.h ****  *                                                                              
  32:C:/Workspaces/DAVE-4.4.2-64Bit/GarbageCollector/XMC4200_GC/Libraries/XMCLib/inc\xmc_gpio.h ****  * To improve the quality of the software, users are encouraged to share modifications, enhancement
  33:C:/Workspaces/DAVE-4.4.2-64Bit/GarbageCollector/XMC4200_GC/Libraries/XMCLib/inc\xmc_gpio.h ****  * Infineon Technologies AG dave@infineon.com).                                                    
  34:C:/Workspaces/DAVE-4.4.2-64Bit/GarbageCollector/XMC4200_GC/Libraries/XMCLib/inc\xmc_gpio.h ****  **************************************************************************************************
  35:C:/Workspaces/DAVE-4.4.2-64Bit/GarbageCollector/XMC4200_GC/Libraries/XMCLib/inc\xmc_gpio.h ****  *
  36:C:/Workspaces/DAVE-4.4.2-64Bit/GarbageCollector/XMC4200_GC/Libraries/XMCLib/inc\xmc_gpio.h ****  * Change History
  37:C:/Workspaces/DAVE-4.4.2-64Bit/GarbageCollector/XMC4200_GC/Libraries/XMCLib/inc\xmc_gpio.h ****  * --------------
  38:C:/Workspaces/DAVE-4.4.2-64Bit/GarbageCollector/XMC4200_GC/Libraries/XMCLib/inc\xmc_gpio.h ****  *
  39:C:/Workspaces/DAVE-4.4.2-64Bit/GarbageCollector/XMC4200_GC/Libraries/XMCLib/inc\xmc_gpio.h ****  * 2015-02-20:
  40:C:/Workspaces/DAVE-4.4.2-64Bit/GarbageCollector/XMC4200_GC/Libraries/XMCLib/inc\xmc_gpio.h ****  *     - Initial draft<br>
  41:C:/Workspaces/DAVE-4.4.2-64Bit/GarbageCollector/XMC4200_GC/Libraries/XMCLib/inc\xmc_gpio.h ****  *     - Documentation improved <br>
  42:C:/Workspaces/DAVE-4.4.2-64Bit/GarbageCollector/XMC4200_GC/Libraries/XMCLib/inc\xmc_gpio.h ****  *      
  43:C:/Workspaces/DAVE-4.4.2-64Bit/GarbageCollector/XMC4200_GC/Libraries/XMCLib/inc\xmc_gpio.h ****  * 2015-06-20:
  44:C:/Workspaces/DAVE-4.4.2-64Bit/GarbageCollector/XMC4200_GC/Libraries/XMCLib/inc\xmc_gpio.h ****  *     - Removed version macros and declaration of GetDriverVersion API
  45:C:/Workspaces/DAVE-4.4.2-64Bit/GarbageCollector/XMC4200_GC/Libraries/XMCLib/inc\xmc_gpio.h ****  *
  46:C:/Workspaces/DAVE-4.4.2-64Bit/GarbageCollector/XMC4200_GC/Libraries/XMCLib/inc\xmc_gpio.h ****  * @endcond
  47:C:/Workspaces/DAVE-4.4.2-64Bit/GarbageCollector/XMC4200_GC/Libraries/XMCLib/inc\xmc_gpio.h ****  *
  48:C:/Workspaces/DAVE-4.4.2-64Bit/GarbageCollector/XMC4200_GC/Libraries/XMCLib/inc\xmc_gpio.h ****  */
  49:C:/Workspaces/DAVE-4.4.2-64Bit/GarbageCollector/XMC4200_GC/Libraries/XMCLib/inc\xmc_gpio.h **** 
  50:C:/Workspaces/DAVE-4.4.2-64Bit/GarbageCollector/XMC4200_GC/Libraries/XMCLib/inc\xmc_gpio.h **** #ifndef XMC_GPIO_H
  51:C:/Workspaces/DAVE-4.4.2-64Bit/GarbageCollector/XMC4200_GC/Libraries/XMCLib/inc\xmc_gpio.h **** #define XMC_GPIO_H
  52:C:/Workspaces/DAVE-4.4.2-64Bit/GarbageCollector/XMC4200_GC/Libraries/XMCLib/inc\xmc_gpio.h **** 
  53:C:/Workspaces/DAVE-4.4.2-64Bit/GarbageCollector/XMC4200_GC/Libraries/XMCLib/inc\xmc_gpio.h **** /**************************************************************************************************
  54:C:/Workspaces/DAVE-4.4.2-64Bit/GarbageCollector/XMC4200_GC/Libraries/XMCLib/inc\xmc_gpio.h ****  * HEADER FILES
  55:C:/Workspaces/DAVE-4.4.2-64Bit/GarbageCollector/XMC4200_GC/Libraries/XMCLib/inc\xmc_gpio.h ****  **************************************************************************************************
  56:C:/Workspaces/DAVE-4.4.2-64Bit/GarbageCollector/XMC4200_GC/Libraries/XMCLib/inc\xmc_gpio.h **** 
  57:C:/Workspaces/DAVE-4.4.2-64Bit/GarbageCollector/XMC4200_GC/Libraries/XMCLib/inc\xmc_gpio.h **** #include "xmc_common.h"
  58:C:/Workspaces/DAVE-4.4.2-64Bit/GarbageCollector/XMC4200_GC/Libraries/XMCLib/inc\xmc_gpio.h **** 
  59:C:/Workspaces/DAVE-4.4.2-64Bit/GarbageCollector/XMC4200_GC/Libraries/XMCLib/inc\xmc_gpio.h **** /**
  60:C:/Workspaces/DAVE-4.4.2-64Bit/GarbageCollector/XMC4200_GC/Libraries/XMCLib/inc\xmc_gpio.h ****  * @addtogroup XMClib XMC Peripheral Library
  61:C:/Workspaces/DAVE-4.4.2-64Bit/GarbageCollector/XMC4200_GC/Libraries/XMCLib/inc\xmc_gpio.h ****  * @{
  62:C:/Workspaces/DAVE-4.4.2-64Bit/GarbageCollector/XMC4200_GC/Libraries/XMCLib/inc\xmc_gpio.h ****  */
  63:C:/Workspaces/DAVE-4.4.2-64Bit/GarbageCollector/XMC4200_GC/Libraries/XMCLib/inc\xmc_gpio.h **** 
  64:C:/Workspaces/DAVE-4.4.2-64Bit/GarbageCollector/XMC4200_GC/Libraries/XMCLib/inc\xmc_gpio.h **** /**
  65:C:/Workspaces/DAVE-4.4.2-64Bit/GarbageCollector/XMC4200_GC/Libraries/XMCLib/inc\xmc_gpio.h ****  * @addtogroup GPIO
  66:C:/Workspaces/DAVE-4.4.2-64Bit/GarbageCollector/XMC4200_GC/Libraries/XMCLib/inc\xmc_gpio.h ****  * @brief General Purpose Input Output (GPIO) driver for the XMC microcontroller family.
  67:C:/Workspaces/DAVE-4.4.2-64Bit/GarbageCollector/XMC4200_GC/Libraries/XMCLib/inc\xmc_gpio.h ****  *
  68:C:/Workspaces/DAVE-4.4.2-64Bit/GarbageCollector/XMC4200_GC/Libraries/XMCLib/inc\xmc_gpio.h ****  * GPIO driver provide a generic and very flexible software interface for all standard digital I/O 
  69:C:/Workspaces/DAVE-4.4.2-64Bit/GarbageCollector/XMC4200_GC/Libraries/XMCLib/inc\xmc_gpio.h ****  * Each port slice has individual interfaces for the operation as General Purpose I/O and it furthe
  70:C:/Workspaces/DAVE-4.4.2-64Bit/GarbageCollector/XMC4200_GC/Libraries/XMCLib/inc\xmc_gpio.h ****  * connectivity to the on-chip periphery and the control for the pad characteristics. 
  71:C:/Workspaces/DAVE-4.4.2-64Bit/GarbageCollector/XMC4200_GC/Libraries/XMCLib/inc\xmc_gpio.h ****  *
  72:C:/Workspaces/DAVE-4.4.2-64Bit/GarbageCollector/XMC4200_GC/Libraries/XMCLib/inc\xmc_gpio.h ****  * The driver is divided into Input and Output mode.
  73:C:/Workspaces/DAVE-4.4.2-64Bit/GarbageCollector/XMC4200_GC/Libraries/XMCLib/inc\xmc_gpio.h ****  *
  74:C:/Workspaces/DAVE-4.4.2-64Bit/GarbageCollector/XMC4200_GC/Libraries/XMCLib/inc\xmc_gpio.h ****  * Input mode features:
  75:C:/Workspaces/DAVE-4.4.2-64Bit/GarbageCollector/XMC4200_GC/Libraries/XMCLib/inc\xmc_gpio.h ****  * -# Configuration structure XMC_GPIO_CONFIG_t and initialization function XMC_GPIO_Init()
  76:C:/Workspaces/DAVE-4.4.2-64Bit/GarbageCollector/XMC4200_GC/Libraries/XMCLib/inc\xmc_gpio.h ****  * -# Allows the selection of weak pull-up or pull-down device. Configuration structure XMC_GPIO_MO
  77:C:/Workspaces/DAVE-4.4.2-64Bit/GarbageCollector/XMC4200_GC/Libraries/XMCLib/inc\xmc_gpio.h ****  * \if XMC1
  78:C:/Workspaces/DAVE-4.4.2-64Bit/GarbageCollector/XMC4200_GC/Libraries/XMCLib/inc\xmc_gpio.h ****  * -# Allows the selection of input hysteresis. XMC_GPIO_SetInputHysteresis()
  79:C:/Workspaces/DAVE-4.4.2-64Bit/GarbageCollector/XMC4200_GC/Libraries/XMCLib/inc\xmc_gpio.h ****  * \endif
  80:C:/Workspaces/DAVE-4.4.2-64Bit/GarbageCollector/XMC4200_GC/Libraries/XMCLib/inc\xmc_gpio.h ****  *
  81:C:/Workspaces/DAVE-4.4.2-64Bit/GarbageCollector/XMC4200_GC/Libraries/XMCLib/inc\xmc_gpio.h ****  * 
  82:C:/Workspaces/DAVE-4.4.2-64Bit/GarbageCollector/XMC4200_GC/Libraries/XMCLib/inc\xmc_gpio.h ****  * Output mode features:
  83:C:/Workspaces/DAVE-4.4.2-64Bit/GarbageCollector/XMC4200_GC/Libraries/XMCLib/inc\xmc_gpio.h ****  * -# Allows the selection of push pull/open drain and Alternate output. Configuration structure XM
  84:C:/Workspaces/DAVE-4.4.2-64Bit/GarbageCollector/XMC4200_GC/Libraries/XMCLib/inc\xmc_gpio.h ****  * \if XMC4
  85:C:/Workspaces/DAVE-4.4.2-64Bit/GarbageCollector/XMC4200_GC/Libraries/XMCLib/inc\xmc_gpio.h ****  * -# Allows the selection of pad driver strength. Configuration structure XMC_GPIO_OUTPUT_STRENGTH
  86:C:/Workspaces/DAVE-4.4.2-64Bit/GarbageCollector/XMC4200_GC/Libraries/XMCLib/inc\xmc_gpio.h ****  * \endif
  87:C:/Workspaces/DAVE-4.4.2-64Bit/GarbageCollector/XMC4200_GC/Libraries/XMCLib/inc\xmc_gpio.h ****  *
  88:C:/Workspaces/DAVE-4.4.2-64Bit/GarbageCollector/XMC4200_GC/Libraries/XMCLib/inc\xmc_gpio.h ****  * -# Allows the selection of initial output level. Configuration structure XMC_GPIO_OUTPUT_LEVEL_t
  89:C:/Workspaces/DAVE-4.4.2-64Bit/GarbageCollector/XMC4200_GC/Libraries/XMCLib/inc\xmc_gpio.h ****  *
  90:C:/Workspaces/DAVE-4.4.2-64Bit/GarbageCollector/XMC4200_GC/Libraries/XMCLib/inc\xmc_gpio.h ****  *@{
  91:C:/Workspaces/DAVE-4.4.2-64Bit/GarbageCollector/XMC4200_GC/Libraries/XMCLib/inc\xmc_gpio.h ****  */
  92:C:/Workspaces/DAVE-4.4.2-64Bit/GarbageCollector/XMC4200_GC/Libraries/XMCLib/inc\xmc_gpio.h ****  
  93:C:/Workspaces/DAVE-4.4.2-64Bit/GarbageCollector/XMC4200_GC/Libraries/XMCLib/inc\xmc_gpio.h **** /**************************************************************************************************
  94:C:/Workspaces/DAVE-4.4.2-64Bit/GarbageCollector/XMC4200_GC/Libraries/XMCLib/inc\xmc_gpio.h ****  * MACROS
  95:C:/Workspaces/DAVE-4.4.2-64Bit/GarbageCollector/XMC4200_GC/Libraries/XMCLib/inc\xmc_gpio.h ****  **************************************************************************************************
  96:C:/Workspaces/DAVE-4.4.2-64Bit/GarbageCollector/XMC4200_GC/Libraries/XMCLib/inc\xmc_gpio.h **** 
  97:C:/Workspaces/DAVE-4.4.2-64Bit/GarbageCollector/XMC4200_GC/Libraries/XMCLib/inc\xmc_gpio.h **** #define PORT_IOCR_PC_Pos PORT0_IOCR0_PC0_Pos
  98:C:/Workspaces/DAVE-4.4.2-64Bit/GarbageCollector/XMC4200_GC/Libraries/XMCLib/inc\xmc_gpio.h **** #define PORT_IOCR_PC_Msk PORT0_IOCR0_PC0_Msk
  99:C:/Workspaces/DAVE-4.4.2-64Bit/GarbageCollector/XMC4200_GC/Libraries/XMCLib/inc\xmc_gpio.h **** 
 100:C:/Workspaces/DAVE-4.4.2-64Bit/GarbageCollector/XMC4200_GC/Libraries/XMCLib/inc\xmc_gpio.h **** #define PORT_IOCR_PC_Size 				(8U)
 101:C:/Workspaces/DAVE-4.4.2-64Bit/GarbageCollector/XMC4200_GC/Libraries/XMCLib/inc\xmc_gpio.h **** 											
 102:C:/Workspaces/DAVE-4.4.2-64Bit/GarbageCollector/XMC4200_GC/Libraries/XMCLib/inc\xmc_gpio.h **** 
 103:C:/Workspaces/DAVE-4.4.2-64Bit/GarbageCollector/XMC4200_GC/Libraries/XMCLib/inc\xmc_gpio.h **** #define XMC_GPIO_CHECK_OUTPUT_LEVEL(level) ((level == XMC_GPIO_OUTPUT_LEVEL_LOW) || \
 104:C:/Workspaces/DAVE-4.4.2-64Bit/GarbageCollector/XMC4200_GC/Libraries/XMCLib/inc\xmc_gpio.h ****                                             (level == XMC_GPIO_OUTPUT_LEVEL_HIGH))
 105:C:/Workspaces/DAVE-4.4.2-64Bit/GarbageCollector/XMC4200_GC/Libraries/XMCLib/inc\xmc_gpio.h ****                                             
 106:C:/Workspaces/DAVE-4.4.2-64Bit/GarbageCollector/XMC4200_GC/Libraries/XMCLib/inc\xmc_gpio.h **** #define XMC_GPIO_CHECK_HWCTRL(hwctrl) ((hwctrl == XMC_GPIO_HWCTRL_DISABLED) || \
 107:C:/Workspaces/DAVE-4.4.2-64Bit/GarbageCollector/XMC4200_GC/Libraries/XMCLib/inc\xmc_gpio.h ****                                        (hwctrl == XMC_GPIO_HWCTRL_PERIPHERAL1) || \
 108:C:/Workspaces/DAVE-4.4.2-64Bit/GarbageCollector/XMC4200_GC/Libraries/XMCLib/inc\xmc_gpio.h ****                                        (hwctrl == XMC_GPIO_HWCTRL_PERIPHERAL2))                    
 109:C:/Workspaces/DAVE-4.4.2-64Bit/GarbageCollector/XMC4200_GC/Libraries/XMCLib/inc\xmc_gpio.h ****                                             
 110:C:/Workspaces/DAVE-4.4.2-64Bit/GarbageCollector/XMC4200_GC/Libraries/XMCLib/inc\xmc_gpio.h **** /**************************************************************************************************
 111:C:/Workspaces/DAVE-4.4.2-64Bit/GarbageCollector/XMC4200_GC/Libraries/XMCLib/inc\xmc_gpio.h ****  * ENUMS
 112:C:/Workspaces/DAVE-4.4.2-64Bit/GarbageCollector/XMC4200_GC/Libraries/XMCLib/inc\xmc_gpio.h ****  **************************************************************************************************
 113:C:/Workspaces/DAVE-4.4.2-64Bit/GarbageCollector/XMC4200_GC/Libraries/XMCLib/inc\xmc_gpio.h **** 
 114:C:/Workspaces/DAVE-4.4.2-64Bit/GarbageCollector/XMC4200_GC/Libraries/XMCLib/inc\xmc_gpio.h **** 
 115:C:/Workspaces/DAVE-4.4.2-64Bit/GarbageCollector/XMC4200_GC/Libraries/XMCLib/inc\xmc_gpio.h **** /**
 116:C:/Workspaces/DAVE-4.4.2-64Bit/GarbageCollector/XMC4200_GC/Libraries/XMCLib/inc\xmc_gpio.h ****  * Defines output level of a pin. Use type \a XMC_GPIO_OUTPUT_LEVEL_t for this enum.
 117:C:/Workspaces/DAVE-4.4.2-64Bit/GarbageCollector/XMC4200_GC/Libraries/XMCLib/inc\xmc_gpio.h ****  */
 118:C:/Workspaces/DAVE-4.4.2-64Bit/GarbageCollector/XMC4200_GC/Libraries/XMCLib/inc\xmc_gpio.h **** typedef enum XMC_GPIO_OUTPUT_LEVEL
 119:C:/Workspaces/DAVE-4.4.2-64Bit/GarbageCollector/XMC4200_GC/Libraries/XMCLib/inc\xmc_gpio.h **** {
 120:C:/Workspaces/DAVE-4.4.2-64Bit/GarbageCollector/XMC4200_GC/Libraries/XMCLib/inc\xmc_gpio.h ****   XMC_GPIO_OUTPUT_LEVEL_LOW  = 0x10000U, /**<  Reset bit */
 121:C:/Workspaces/DAVE-4.4.2-64Bit/GarbageCollector/XMC4200_GC/Libraries/XMCLib/inc\xmc_gpio.h ****   XMC_GPIO_OUTPUT_LEVEL_HIGH = 0x1U, 	/**< Set bit  */
 122:C:/Workspaces/DAVE-4.4.2-64Bit/GarbageCollector/XMC4200_GC/Libraries/XMCLib/inc\xmc_gpio.h **** } XMC_GPIO_OUTPUT_LEVEL_t;
 123:C:/Workspaces/DAVE-4.4.2-64Bit/GarbageCollector/XMC4200_GC/Libraries/XMCLib/inc\xmc_gpio.h **** 
 124:C:/Workspaces/DAVE-4.4.2-64Bit/GarbageCollector/XMC4200_GC/Libraries/XMCLib/inc\xmc_gpio.h **** /**
 125:C:/Workspaces/DAVE-4.4.2-64Bit/GarbageCollector/XMC4200_GC/Libraries/XMCLib/inc\xmc_gpio.h ****  * Defines direct hardware control characteristics of the pin . Use type \a XMC_GPIO_HWCTRL_t for t
 126:C:/Workspaces/DAVE-4.4.2-64Bit/GarbageCollector/XMC4200_GC/Libraries/XMCLib/inc\xmc_gpio.h ****  */
 127:C:/Workspaces/DAVE-4.4.2-64Bit/GarbageCollector/XMC4200_GC/Libraries/XMCLib/inc\xmc_gpio.h **** typedef enum XMC_GPIO_HWCTRL
 128:C:/Workspaces/DAVE-4.4.2-64Bit/GarbageCollector/XMC4200_GC/Libraries/XMCLib/inc\xmc_gpio.h **** {
 129:C:/Workspaces/DAVE-4.4.2-64Bit/GarbageCollector/XMC4200_GC/Libraries/XMCLib/inc\xmc_gpio.h ****   XMC_GPIO_HWCTRL_DISABLED     = 0x0U, /**<  Software control only */
 130:C:/Workspaces/DAVE-4.4.2-64Bit/GarbageCollector/XMC4200_GC/Libraries/XMCLib/inc\xmc_gpio.h ****   XMC_GPIO_HWCTRL_PERIPHERAL1  = 0x1U, /**<  HWI0/HWO0 control path can override the software confi
 131:C:/Workspaces/DAVE-4.4.2-64Bit/GarbageCollector/XMC4200_GC/Libraries/XMCLib/inc\xmc_gpio.h ****   XMC_GPIO_HWCTRL_PERIPHERAL2  = 0x2U  /**<  HWI1/HWO1 control path can override the software confi
 132:C:/Workspaces/DAVE-4.4.2-64Bit/GarbageCollector/XMC4200_GC/Libraries/XMCLib/inc\xmc_gpio.h **** } XMC_GPIO_HWCTRL_t;
 133:C:/Workspaces/DAVE-4.4.2-64Bit/GarbageCollector/XMC4200_GC/Libraries/XMCLib/inc\xmc_gpio.h **** 
 134:C:/Workspaces/DAVE-4.4.2-64Bit/GarbageCollector/XMC4200_GC/Libraries/XMCLib/inc\xmc_gpio.h **** /**************************************************************************************************
 135:C:/Workspaces/DAVE-4.4.2-64Bit/GarbageCollector/XMC4200_GC/Libraries/XMCLib/inc\xmc_gpio.h ****  * DEVICE FAMILY EXTENSIONS
 136:C:/Workspaces/DAVE-4.4.2-64Bit/GarbageCollector/XMC4200_GC/Libraries/XMCLib/inc\xmc_gpio.h ****  **************************************************************************************************
 137:C:/Workspaces/DAVE-4.4.2-64Bit/GarbageCollector/XMC4200_GC/Libraries/XMCLib/inc\xmc_gpio.h **** 
 138:C:/Workspaces/DAVE-4.4.2-64Bit/GarbageCollector/XMC4200_GC/Libraries/XMCLib/inc\xmc_gpio.h ****  #if UC_FAMILY == XMC1
 139:C:/Workspaces/DAVE-4.4.2-64Bit/GarbageCollector/XMC4200_GC/Libraries/XMCLib/inc\xmc_gpio.h **** #include "xmc1_gpio.h"
 140:C:/Workspaces/DAVE-4.4.2-64Bit/GarbageCollector/XMC4200_GC/Libraries/XMCLib/inc\xmc_gpio.h **** #elif UC_FAMILY == XMC4
 141:C:/Workspaces/DAVE-4.4.2-64Bit/GarbageCollector/XMC4200_GC/Libraries/XMCLib/inc\xmc_gpio.h **** #include "xmc4_gpio.h"
 142:C:/Workspaces/DAVE-4.4.2-64Bit/GarbageCollector/XMC4200_GC/Libraries/XMCLib/inc\xmc_gpio.h **** #else
 143:C:/Workspaces/DAVE-4.4.2-64Bit/GarbageCollector/XMC4200_GC/Libraries/XMCLib/inc\xmc_gpio.h **** #error "xmc_gpio.h: family device not supported"
 144:C:/Workspaces/DAVE-4.4.2-64Bit/GarbageCollector/XMC4200_GC/Libraries/XMCLib/inc\xmc_gpio.h **** #endif
 145:C:/Workspaces/DAVE-4.4.2-64Bit/GarbageCollector/XMC4200_GC/Libraries/XMCLib/inc\xmc_gpio.h **** 
 146:C:/Workspaces/DAVE-4.4.2-64Bit/GarbageCollector/XMC4200_GC/Libraries/XMCLib/inc\xmc_gpio.h **** /**************************************************************************************************
 147:C:/Workspaces/DAVE-4.4.2-64Bit/GarbageCollector/XMC4200_GC/Libraries/XMCLib/inc\xmc_gpio.h ****  * API PROTOTYPES
 148:C:/Workspaces/DAVE-4.4.2-64Bit/GarbageCollector/XMC4200_GC/Libraries/XMCLib/inc\xmc_gpio.h ****  **************************************************************************************************
 149:C:/Workspaces/DAVE-4.4.2-64Bit/GarbageCollector/XMC4200_GC/Libraries/XMCLib/inc\xmc_gpio.h **** 
 150:C:/Workspaces/DAVE-4.4.2-64Bit/GarbageCollector/XMC4200_GC/Libraries/XMCLib/inc\xmc_gpio.h **** #ifdef __cplusplus
 151:C:/Workspaces/DAVE-4.4.2-64Bit/GarbageCollector/XMC4200_GC/Libraries/XMCLib/inc\xmc_gpio.h **** extern "C" {
 152:C:/Workspaces/DAVE-4.4.2-64Bit/GarbageCollector/XMC4200_GC/Libraries/XMCLib/inc\xmc_gpio.h **** #endif
 153:C:/Workspaces/DAVE-4.4.2-64Bit/GarbageCollector/XMC4200_GC/Libraries/XMCLib/inc\xmc_gpio.h **** 
 154:C:/Workspaces/DAVE-4.4.2-64Bit/GarbageCollector/XMC4200_GC/Libraries/XMCLib/inc\xmc_gpio.h **** 
 155:C:/Workspaces/DAVE-4.4.2-64Bit/GarbageCollector/XMC4200_GC/Libraries/XMCLib/inc\xmc_gpio.h **** /**
 156:C:/Workspaces/DAVE-4.4.2-64Bit/GarbageCollector/XMC4200_GC/Libraries/XMCLib/inc\xmc_gpio.h ****  * @param  port	  Constant pointer pointing to GPIO port, to access port registers like Pn_OUT,Pn_O
 157:C:/Workspaces/DAVE-4.4.2-64Bit/GarbageCollector/XMC4200_GC/Libraries/XMCLib/inc\xmc_gpio.h ****  * @param  pin	  Port pin number.
 158:C:/Workspaces/DAVE-4.4.2-64Bit/GarbageCollector/XMC4200_GC/Libraries/XMCLib/inc\xmc_gpio.h ****  * @param  config GPIO configuration data structure. Refer data structure @ref XMC_GPIO_CONFIG_t fo
 159:C:/Workspaces/DAVE-4.4.2-64Bit/GarbageCollector/XMC4200_GC/Libraries/XMCLib/inc\xmc_gpio.h ****  *
 160:C:/Workspaces/DAVE-4.4.2-64Bit/GarbageCollector/XMC4200_GC/Libraries/XMCLib/inc\xmc_gpio.h ****  * @return None
 161:C:/Workspaces/DAVE-4.4.2-64Bit/GarbageCollector/XMC4200_GC/Libraries/XMCLib/inc\xmc_gpio.h ****  *
 162:C:/Workspaces/DAVE-4.4.2-64Bit/GarbageCollector/XMC4200_GC/Libraries/XMCLib/inc\xmc_gpio.h ****  * \par<b>Description:</b><br>
 163:C:/Workspaces/DAVE-4.4.2-64Bit/GarbageCollector/XMC4200_GC/Libraries/XMCLib/inc\xmc_gpio.h ****  * \if XMC1
 164:C:/Workspaces/DAVE-4.4.2-64Bit/GarbageCollector/XMC4200_GC/Libraries/XMCLib/inc\xmc_gpio.h ****  * Initializes input / output mode settings like, pull up / pull down devices,hysteresis, push pull
 165:C:/Workspaces/DAVE-4.4.2-64Bit/GarbageCollector/XMC4200_GC/Libraries/XMCLib/inc\xmc_gpio.h ****  * Also configures alternate function outputs and clears hardware port control for a selected \a po
 166:C:/Workspaces/DAVE-4.4.2-64Bit/GarbageCollector/XMC4200_GC/Libraries/XMCLib/inc\xmc_gpio.h ****  * \a config provides selected I/O settings. It configures hardware registers Pn_IOCR,Pn_OUT, Pn_OM
 167:C:/Workspaces/DAVE-4.4.2-64Bit/GarbageCollector/XMC4200_GC/Libraries/XMCLib/inc\xmc_gpio.h ****  * \endif
 168:C:/Workspaces/DAVE-4.4.2-64Bit/GarbageCollector/XMC4200_GC/Libraries/XMCLib/inc\xmc_gpio.h ****  * \if XMC4
 169:C:/Workspaces/DAVE-4.4.2-64Bit/GarbageCollector/XMC4200_GC/Libraries/XMCLib/inc\xmc_gpio.h ****  * Initializes input / output mode settings like, pull up / pull down devices,push pull /open drain
 170:C:/Workspaces/DAVE-4.4.2-64Bit/GarbageCollector/XMC4200_GC/Libraries/XMCLib/inc\xmc_gpio.h ****  * Also configures alternate function outputs and clears hardware port control for selected \a port
 171:C:/Workspaces/DAVE-4.4.2-64Bit/GarbageCollector/XMC4200_GC/Libraries/XMCLib/inc\xmc_gpio.h ****  * It configures hardware registers Pn_IOCR,Pn_OUT,Pn_OMR,Pn_PDISC and Pn_PDR.\n
 172:C:/Workspaces/DAVE-4.4.2-64Bit/GarbageCollector/XMC4200_GC/Libraries/XMCLib/inc\xmc_gpio.h ****  * \endif
 173:C:/Workspaces/DAVE-4.4.2-64Bit/GarbageCollector/XMC4200_GC/Libraries/XMCLib/inc\xmc_gpio.h ****  *
 174:C:/Workspaces/DAVE-4.4.2-64Bit/GarbageCollector/XMC4200_GC/Libraries/XMCLib/inc\xmc_gpio.h ****  * \par<b>Related APIs:</b><BR>
 175:C:/Workspaces/DAVE-4.4.2-64Bit/GarbageCollector/XMC4200_GC/Libraries/XMCLib/inc\xmc_gpio.h ****  *  None
 176:C:/Workspaces/DAVE-4.4.2-64Bit/GarbageCollector/XMC4200_GC/Libraries/XMCLib/inc\xmc_gpio.h ****  *
 177:C:/Workspaces/DAVE-4.4.2-64Bit/GarbageCollector/XMC4200_GC/Libraries/XMCLib/inc\xmc_gpio.h ****  * \par<b>Note:</b><br>
 178:C:/Workspaces/DAVE-4.4.2-64Bit/GarbageCollector/XMC4200_GC/Libraries/XMCLib/inc\xmc_gpio.h ****  * This API is called in definition of DAVE_init by code generation and therefore should not be exp
 179:C:/Workspaces/DAVE-4.4.2-64Bit/GarbageCollector/XMC4200_GC/Libraries/XMCLib/inc\xmc_gpio.h ****  * for the normal operation. Use other APIs only after DAVE_init is called successfully (returns DA
 180:C:/Workspaces/DAVE-4.4.2-64Bit/GarbageCollector/XMC4200_GC/Libraries/XMCLib/inc\xmc_gpio.h ****  *
 181:C:/Workspaces/DAVE-4.4.2-64Bit/GarbageCollector/XMC4200_GC/Libraries/XMCLib/inc\xmc_gpio.h ****  *
 182:C:/Workspaces/DAVE-4.4.2-64Bit/GarbageCollector/XMC4200_GC/Libraries/XMCLib/inc\xmc_gpio.h ****  */
 183:C:/Workspaces/DAVE-4.4.2-64Bit/GarbageCollector/XMC4200_GC/Libraries/XMCLib/inc\xmc_gpio.h **** 
 184:C:/Workspaces/DAVE-4.4.2-64Bit/GarbageCollector/XMC4200_GC/Libraries/XMCLib/inc\xmc_gpio.h ****  
 185:C:/Workspaces/DAVE-4.4.2-64Bit/GarbageCollector/XMC4200_GC/Libraries/XMCLib/inc\xmc_gpio.h **** void XMC_GPIO_Init(XMC_GPIO_PORT_t *const port, const uint8_t pin, const XMC_GPIO_CONFIG_t *const c
 186:C:/Workspaces/DAVE-4.4.2-64Bit/GarbageCollector/XMC4200_GC/Libraries/XMCLib/inc\xmc_gpio.h ****  
 187:C:/Workspaces/DAVE-4.4.2-64Bit/GarbageCollector/XMC4200_GC/Libraries/XMCLib/inc\xmc_gpio.h **** /**
 188:C:/Workspaces/DAVE-4.4.2-64Bit/GarbageCollector/XMC4200_GC/Libraries/XMCLib/inc\xmc_gpio.h ****  *
 189:C:/Workspaces/DAVE-4.4.2-64Bit/GarbageCollector/XMC4200_GC/Libraries/XMCLib/inc\xmc_gpio.h ****  * @param  port	Constant pointer pointing to GPIO port, to access hardware register Pn_IOCR.
 190:C:/Workspaces/DAVE-4.4.2-64Bit/GarbageCollector/XMC4200_GC/Libraries/XMCLib/inc\xmc_gpio.h ****  * @param  pin	Port pin number.
 191:C:/Workspaces/DAVE-4.4.2-64Bit/GarbageCollector/XMC4200_GC/Libraries/XMCLib/inc\xmc_gpio.h ****  * @param  mode input / output functionality selection. Refer @ref XMC_GPIO_MODE_t for valid values
 192:C:/Workspaces/DAVE-4.4.2-64Bit/GarbageCollector/XMC4200_GC/Libraries/XMCLib/inc\xmc_gpio.h ****  *
 193:C:/Workspaces/DAVE-4.4.2-64Bit/GarbageCollector/XMC4200_GC/Libraries/XMCLib/inc\xmc_gpio.h ****  * @return None
 194:C:/Workspaces/DAVE-4.4.2-64Bit/GarbageCollector/XMC4200_GC/Libraries/XMCLib/inc\xmc_gpio.h ****  *
 195:C:/Workspaces/DAVE-4.4.2-64Bit/GarbageCollector/XMC4200_GC/Libraries/XMCLib/inc\xmc_gpio.h ****  * \par<b>Description:</b><br>
 196:C:/Workspaces/DAVE-4.4.2-64Bit/GarbageCollector/XMC4200_GC/Libraries/XMCLib/inc\xmc_gpio.h ****  * Sets digital input and output driver functionality and characteristics of a GPIO port pin. It co
 197:C:/Workspaces/DAVE-4.4.2-64Bit/GarbageCollector/XMC4200_GC/Libraries/XMCLib/inc\xmc_gpio.h ****  * registers Pn_IOCR. \a mode is initially configured during initialization in XMC_GPIO_Init(). Cal
 198:C:/Workspaces/DAVE-4.4.2-64Bit/GarbageCollector/XMC4200_GC/Libraries/XMCLib/inc\xmc_gpio.h ****  * the port direction functionality as needed later in the program.
 199:C:/Workspaces/DAVE-4.4.2-64Bit/GarbageCollector/XMC4200_GC/Libraries/XMCLib/inc\xmc_gpio.h ****  *
 200:C:/Workspaces/DAVE-4.4.2-64Bit/GarbageCollector/XMC4200_GC/Libraries/XMCLib/inc\xmc_gpio.h ****  * \par<b>Related APIs:</b><BR>
 201:C:/Workspaces/DAVE-4.4.2-64Bit/GarbageCollector/XMC4200_GC/Libraries/XMCLib/inc\xmc_gpio.h ****  *  None
 202:C:/Workspaces/DAVE-4.4.2-64Bit/GarbageCollector/XMC4200_GC/Libraries/XMCLib/inc\xmc_gpio.h ****  *
 203:C:/Workspaces/DAVE-4.4.2-64Bit/GarbageCollector/XMC4200_GC/Libraries/XMCLib/inc\xmc_gpio.h ****  */
 204:C:/Workspaces/DAVE-4.4.2-64Bit/GarbageCollector/XMC4200_GC/Libraries/XMCLib/inc\xmc_gpio.h **** 
 205:C:/Workspaces/DAVE-4.4.2-64Bit/GarbageCollector/XMC4200_GC/Libraries/XMCLib/inc\xmc_gpio.h **** void XMC_GPIO_SetMode(XMC_GPIO_PORT_t *const port, const uint8_t pin, const XMC_GPIO_MODE_t mode);
 206:C:/Workspaces/DAVE-4.4.2-64Bit/GarbageCollector/XMC4200_GC/Libraries/XMCLib/inc\xmc_gpio.h **** 
 207:C:/Workspaces/DAVE-4.4.2-64Bit/GarbageCollector/XMC4200_GC/Libraries/XMCLib/inc\xmc_gpio.h **** 
 208:C:/Workspaces/DAVE-4.4.2-64Bit/GarbageCollector/XMC4200_GC/Libraries/XMCLib/inc\xmc_gpio.h **** /**
 209:C:/Workspaces/DAVE-4.4.2-64Bit/GarbageCollector/XMC4200_GC/Libraries/XMCLib/inc\xmc_gpio.h ****  *
 210:C:/Workspaces/DAVE-4.4.2-64Bit/GarbageCollector/XMC4200_GC/Libraries/XMCLib/inc\xmc_gpio.h ****  * @param  port	 Constant pointer pointing to GPIO port, to access hardware register Pn_OMR.
 211:C:/Workspaces/DAVE-4.4.2-64Bit/GarbageCollector/XMC4200_GC/Libraries/XMCLib/inc\xmc_gpio.h ****  * @param  pin	 Port pin number.
 212:C:/Workspaces/DAVE-4.4.2-64Bit/GarbageCollector/XMC4200_GC/Libraries/XMCLib/inc\xmc_gpio.h ****  * @param  level output level selection. Refer @ref XMC_GPIO_OUTPUT_LEVEL_t for valid values.
 213:C:/Workspaces/DAVE-4.4.2-64Bit/GarbageCollector/XMC4200_GC/Libraries/XMCLib/inc\xmc_gpio.h ****  *
 214:C:/Workspaces/DAVE-4.4.2-64Bit/GarbageCollector/XMC4200_GC/Libraries/XMCLib/inc\xmc_gpio.h ****  * @return None
 215:C:/Workspaces/DAVE-4.4.2-64Bit/GarbageCollector/XMC4200_GC/Libraries/XMCLib/inc\xmc_gpio.h ****  *
 216:C:/Workspaces/DAVE-4.4.2-64Bit/GarbageCollector/XMC4200_GC/Libraries/XMCLib/inc\xmc_gpio.h ****  * \par<b>Description:</b><br>
 217:C:/Workspaces/DAVE-4.4.2-64Bit/GarbageCollector/XMC4200_GC/Libraries/XMCLib/inc\xmc_gpio.h ****  * Set port pin output level to high or low.It configures hardware registers Pn_OMR.\a level is ini
 218:C:/Workspaces/DAVE-4.4.2-64Bit/GarbageCollector/XMC4200_GC/Libraries/XMCLib/inc\xmc_gpio.h ****  * configured during initialization in XMC_GPIO_Init(). Call this API to alter output level as need
 219:C:/Workspaces/DAVE-4.4.2-64Bit/GarbageCollector/XMC4200_GC/Libraries/XMCLib/inc\xmc_gpio.h ****  *
 220:C:/Workspaces/DAVE-4.4.2-64Bit/GarbageCollector/XMC4200_GC/Libraries/XMCLib/inc\xmc_gpio.h ****  * \par<b>Related APIs:</b><BR>
 221:C:/Workspaces/DAVE-4.4.2-64Bit/GarbageCollector/XMC4200_GC/Libraries/XMCLib/inc\xmc_gpio.h ****  *  XMC_GPIO_SetOutputHigh(), XMC_GPIO_SetOutputLow().
 222:C:/Workspaces/DAVE-4.4.2-64Bit/GarbageCollector/XMC4200_GC/Libraries/XMCLib/inc\xmc_gpio.h ****  *
 223:C:/Workspaces/DAVE-4.4.2-64Bit/GarbageCollector/XMC4200_GC/Libraries/XMCLib/inc\xmc_gpio.h ****  * \par<b>Note:</b><br>
 224:C:/Workspaces/DAVE-4.4.2-64Bit/GarbageCollector/XMC4200_GC/Libraries/XMCLib/inc\xmc_gpio.h ****  * Prior to this api, user has to configure port pin to output mode using XMC_GPIO_SetMode().
 225:C:/Workspaces/DAVE-4.4.2-64Bit/GarbageCollector/XMC4200_GC/Libraries/XMCLib/inc\xmc_gpio.h ****  *
 226:C:/Workspaces/DAVE-4.4.2-64Bit/GarbageCollector/XMC4200_GC/Libraries/XMCLib/inc\xmc_gpio.h ****  */
 227:C:/Workspaces/DAVE-4.4.2-64Bit/GarbageCollector/XMC4200_GC/Libraries/XMCLib/inc\xmc_gpio.h **** 
 228:C:/Workspaces/DAVE-4.4.2-64Bit/GarbageCollector/XMC4200_GC/Libraries/XMCLib/inc\xmc_gpio.h **** 
 229:C:/Workspaces/DAVE-4.4.2-64Bit/GarbageCollector/XMC4200_GC/Libraries/XMCLib/inc\xmc_gpio.h **** __STATIC_INLINE void XMC_GPIO_SetOutputLevel(XMC_GPIO_PORT_t *const port, const uint8_t pin, const 
 230:C:/Workspaces/DAVE-4.4.2-64Bit/GarbageCollector/XMC4200_GC/Libraries/XMCLib/inc\xmc_gpio.h **** {
 231:C:/Workspaces/DAVE-4.4.2-64Bit/GarbageCollector/XMC4200_GC/Libraries/XMCLib/inc\xmc_gpio.h ****   XMC_ASSERT("XMC_GPIO_SetOutputLevel: Invalid port", XMC_GPIO_CHECK_OUTPUT_PORT(port));
 232:C:/Workspaces/DAVE-4.4.2-64Bit/GarbageCollector/XMC4200_GC/Libraries/XMCLib/inc\xmc_gpio.h ****   XMC_ASSERT("XMC_GPIO_SetOutputLevel: Invalid output level", XMC_GPIO_CHECK_OUTPUT_LEVEL(level));
 233:C:/Workspaces/DAVE-4.4.2-64Bit/GarbageCollector/XMC4200_GC/Libraries/XMCLib/inc\xmc_gpio.h ****   
 234:C:/Workspaces/DAVE-4.4.2-64Bit/GarbageCollector/XMC4200_GC/Libraries/XMCLib/inc\xmc_gpio.h ****   port->OMR = (uint32_t)level << pin;
 235:C:/Workspaces/DAVE-4.4.2-64Bit/GarbageCollector/XMC4200_GC/Libraries/XMCLib/inc\xmc_gpio.h **** }
 236:C:/Workspaces/DAVE-4.4.2-64Bit/GarbageCollector/XMC4200_GC/Libraries/XMCLib/inc\xmc_gpio.h **** 
 237:C:/Workspaces/DAVE-4.4.2-64Bit/GarbageCollector/XMC4200_GC/Libraries/XMCLib/inc\xmc_gpio.h **** 
 238:C:/Workspaces/DAVE-4.4.2-64Bit/GarbageCollector/XMC4200_GC/Libraries/XMCLib/inc\xmc_gpio.h **** /**
 239:C:/Workspaces/DAVE-4.4.2-64Bit/GarbageCollector/XMC4200_GC/Libraries/XMCLib/inc\xmc_gpio.h ****  * @param  port constant pointer pointing to GPIO port, to access hardware register Pn_OMR.
 240:C:/Workspaces/DAVE-4.4.2-64Bit/GarbageCollector/XMC4200_GC/Libraries/XMCLib/inc\xmc_gpio.h ****  * @param  pin	Port pin number.
 241:C:/Workspaces/DAVE-4.4.2-64Bit/GarbageCollector/XMC4200_GC/Libraries/XMCLib/inc\xmc_gpio.h ****  *
 242:C:/Workspaces/DAVE-4.4.2-64Bit/GarbageCollector/XMC4200_GC/Libraries/XMCLib/inc\xmc_gpio.h ****  * @return None
 243:C:/Workspaces/DAVE-4.4.2-64Bit/GarbageCollector/XMC4200_GC/Libraries/XMCLib/inc\xmc_gpio.h ****  *
 244:C:/Workspaces/DAVE-4.4.2-64Bit/GarbageCollector/XMC4200_GC/Libraries/XMCLib/inc\xmc_gpio.h ****  * \par<b>Description:</b><br>
 245:C:/Workspaces/DAVE-4.4.2-64Bit/GarbageCollector/XMC4200_GC/Libraries/XMCLib/inc\xmc_gpio.h ****  *  Sets port pin output to high. It configures hardware registers Pn_OMR.
 246:C:/Workspaces/DAVE-4.4.2-64Bit/GarbageCollector/XMC4200_GC/Libraries/XMCLib/inc\xmc_gpio.h ****  *
 247:C:/Workspaces/DAVE-4.4.2-64Bit/GarbageCollector/XMC4200_GC/Libraries/XMCLib/inc\xmc_gpio.h ****  *  \par<b>Related APIs:</b><BR>
 248:C:/Workspaces/DAVE-4.4.2-64Bit/GarbageCollector/XMC4200_GC/Libraries/XMCLib/inc\xmc_gpio.h ****  *  XMC_GPIO_SetOutputLow()
 249:C:/Workspaces/DAVE-4.4.2-64Bit/GarbageCollector/XMC4200_GC/Libraries/XMCLib/inc\xmc_gpio.h ****  *
 250:C:/Workspaces/DAVE-4.4.2-64Bit/GarbageCollector/XMC4200_GC/Libraries/XMCLib/inc\xmc_gpio.h ****  * \par<b>Note:</b><br>
 251:C:/Workspaces/DAVE-4.4.2-64Bit/GarbageCollector/XMC4200_GC/Libraries/XMCLib/inc\xmc_gpio.h ****  * Prior to this api, user has to configure port pin to output mode using XMC_GPIO_SetMode().\n
 252:C:/Workspaces/DAVE-4.4.2-64Bit/GarbageCollector/XMC4200_GC/Libraries/XMCLib/inc\xmc_gpio.h ****  * Register Pn_OMR is virtual and does not contain any flip-flop. A read action delivers the value 
 253:C:/Workspaces/DAVE-4.4.2-64Bit/GarbageCollector/XMC4200_GC/Libraries/XMCLib/inc\xmc_gpio.h ****  *
 254:C:/Workspaces/DAVE-4.4.2-64Bit/GarbageCollector/XMC4200_GC/Libraries/XMCLib/inc\xmc_gpio.h ****  */
 255:C:/Workspaces/DAVE-4.4.2-64Bit/GarbageCollector/XMC4200_GC/Libraries/XMCLib/inc\xmc_gpio.h **** 
 256:C:/Workspaces/DAVE-4.4.2-64Bit/GarbageCollector/XMC4200_GC/Libraries/XMCLib/inc\xmc_gpio.h **** __STATIC_INLINE void XMC_GPIO_SetOutputHigh(XMC_GPIO_PORT_t *const port, const uint8_t pin)
 257:C:/Workspaces/DAVE-4.4.2-64Bit/GarbageCollector/XMC4200_GC/Libraries/XMCLib/inc\xmc_gpio.h **** {
  27              	 .loc 1 257 0
  28              	 .cfi_startproc
  29              	 
  30              	 
  31              	 
  32 0000 80B4     	 push {r7}
  33              	.LCFI0:
  34              	 .cfi_def_cfa_offset 4
  35              	 .cfi_offset 7,-4
  36 0002 83B0     	 sub sp,sp,#12
  37              	.LCFI1:
  38              	 .cfi_def_cfa_offset 16
  39 0004 00AF     	 add r7,sp,#0
  40              	.LCFI2:
  41              	 .cfi_def_cfa_register 7
  42 0006 7860     	 str r0,[r7,#4]
  43 0008 0B46     	 mov r3,r1
  44 000a FB70     	 strb r3,[r7,#3]
 258:C:/Workspaces/DAVE-4.4.2-64Bit/GarbageCollector/XMC4200_GC/Libraries/XMCLib/inc\xmc_gpio.h ****   XMC_ASSERT("XMC_GPIO_SetOutputHigh: Invalid port", XMC_GPIO_CHECK_OUTPUT_PORT(port));
 259:C:/Workspaces/DAVE-4.4.2-64Bit/GarbageCollector/XMC4200_GC/Libraries/XMCLib/inc\xmc_gpio.h **** 
 260:C:/Workspaces/DAVE-4.4.2-64Bit/GarbageCollector/XMC4200_GC/Libraries/XMCLib/inc\xmc_gpio.h ****   port->OMR = (uint32_t)0x1U << pin;
  45              	 .loc 1 260 0
  46 000c FB78     	 ldrb r3,[r7,#3]
  47 000e 0122     	 movs r2,#1
  48 0010 9A40     	 lsls r2,r2,r3
  49 0012 7B68     	 ldr r3,[r7,#4]
  50 0014 5A60     	 str r2,[r3,#4]
 261:C:/Workspaces/DAVE-4.4.2-64Bit/GarbageCollector/XMC4200_GC/Libraries/XMCLib/inc\xmc_gpio.h **** }
  51              	 .loc 1 261 0
  52 0016 0C37     	 adds r7,r7,#12
  53              	.LCFI3:
  54              	 .cfi_def_cfa_offset 4
  55 0018 BD46     	 mov sp,r7
  56              	.LCFI4:
  57              	 .cfi_def_cfa_register 13
  58              	 
  59 001a 5DF8047B 	 ldr r7,[sp],#4
  60              	.LCFI5:
  61              	 .cfi_restore 7
  62              	 .cfi_def_cfa_offset 0
  63 001e 7047     	 bx lr
  64              	 .cfi_endproc
  65              	.LFE139:
  67              	 .section .text.XMC_GPIO_SetOutputLow,"ax",%progbits
  68              	 .align 2
  69              	 .thumb
  70              	 .thumb_func
  72              	XMC_GPIO_SetOutputLow:
  73              	.LFB140:
 262:C:/Workspaces/DAVE-4.4.2-64Bit/GarbageCollector/XMC4200_GC/Libraries/XMCLib/inc\xmc_gpio.h **** 
 263:C:/Workspaces/DAVE-4.4.2-64Bit/GarbageCollector/XMC4200_GC/Libraries/XMCLib/inc\xmc_gpio.h **** /**
 264:C:/Workspaces/DAVE-4.4.2-64Bit/GarbageCollector/XMC4200_GC/Libraries/XMCLib/inc\xmc_gpio.h ****  *
 265:C:/Workspaces/DAVE-4.4.2-64Bit/GarbageCollector/XMC4200_GC/Libraries/XMCLib/inc\xmc_gpio.h ****  * @param  port	constant pointer pointing to GPIO port, to access hardware register Pn_OMR.
 266:C:/Workspaces/DAVE-4.4.2-64Bit/GarbageCollector/XMC4200_GC/Libraries/XMCLib/inc\xmc_gpio.h ****  * @param  pin	port pin number.
 267:C:/Workspaces/DAVE-4.4.2-64Bit/GarbageCollector/XMC4200_GC/Libraries/XMCLib/inc\xmc_gpio.h ****  *
 268:C:/Workspaces/DAVE-4.4.2-64Bit/GarbageCollector/XMC4200_GC/Libraries/XMCLib/inc\xmc_gpio.h ****  * @return  None
 269:C:/Workspaces/DAVE-4.4.2-64Bit/GarbageCollector/XMC4200_GC/Libraries/XMCLib/inc\xmc_gpio.h ****  *
 270:C:/Workspaces/DAVE-4.4.2-64Bit/GarbageCollector/XMC4200_GC/Libraries/XMCLib/inc\xmc_gpio.h ****  *\par<b>Description:</b><br>
 271:C:/Workspaces/DAVE-4.4.2-64Bit/GarbageCollector/XMC4200_GC/Libraries/XMCLib/inc\xmc_gpio.h ****  * Sets port pin output to low. It configures hardware registers Pn_OMR.\n
 272:C:/Workspaces/DAVE-4.4.2-64Bit/GarbageCollector/XMC4200_GC/Libraries/XMCLib/inc\xmc_gpio.h ****  *
 273:C:/Workspaces/DAVE-4.4.2-64Bit/GarbageCollector/XMC4200_GC/Libraries/XMCLib/inc\xmc_gpio.h ****  * \par<b>Related APIs:</b><BR>>
 274:C:/Workspaces/DAVE-4.4.2-64Bit/GarbageCollector/XMC4200_GC/Libraries/XMCLib/inc\xmc_gpio.h ****  * XMC_GPIO_SetOutputHigh()
 275:C:/Workspaces/DAVE-4.4.2-64Bit/GarbageCollector/XMC4200_GC/Libraries/XMCLib/inc\xmc_gpio.h ****  *
 276:C:/Workspaces/DAVE-4.4.2-64Bit/GarbageCollector/XMC4200_GC/Libraries/XMCLib/inc\xmc_gpio.h ****  *\par<b>Note:</b><br>
 277:C:/Workspaces/DAVE-4.4.2-64Bit/GarbageCollector/XMC4200_GC/Libraries/XMCLib/inc\xmc_gpio.h ****  * Prior to this api, user has to configure port pin to output mode using XMC_GPIO_SetMode().
 278:C:/Workspaces/DAVE-4.4.2-64Bit/GarbageCollector/XMC4200_GC/Libraries/XMCLib/inc\xmc_gpio.h ****  * Register Pn_OMR is virtual and does not contain any flip-flop. A read action delivers the value 
 279:C:/Workspaces/DAVE-4.4.2-64Bit/GarbageCollector/XMC4200_GC/Libraries/XMCLib/inc\xmc_gpio.h ****  *
 280:C:/Workspaces/DAVE-4.4.2-64Bit/GarbageCollector/XMC4200_GC/Libraries/XMCLib/inc\xmc_gpio.h ****  */
 281:C:/Workspaces/DAVE-4.4.2-64Bit/GarbageCollector/XMC4200_GC/Libraries/XMCLib/inc\xmc_gpio.h **** 
 282:C:/Workspaces/DAVE-4.4.2-64Bit/GarbageCollector/XMC4200_GC/Libraries/XMCLib/inc\xmc_gpio.h **** __STATIC_INLINE void XMC_GPIO_SetOutputLow(XMC_GPIO_PORT_t *const port, const uint8_t pin)
 283:C:/Workspaces/DAVE-4.4.2-64Bit/GarbageCollector/XMC4200_GC/Libraries/XMCLib/inc\xmc_gpio.h **** {
  74              	 .loc 1 283 0
  75              	 .cfi_startproc
  76              	 
  77              	 
  78              	 
  79 0000 80B4     	 push {r7}
  80              	.LCFI6:
  81              	 .cfi_def_cfa_offset 4
  82              	 .cfi_offset 7,-4
  83 0002 83B0     	 sub sp,sp,#12
  84              	.LCFI7:
  85              	 .cfi_def_cfa_offset 16
  86 0004 00AF     	 add r7,sp,#0
  87              	.LCFI8:
  88              	 .cfi_def_cfa_register 7
  89 0006 7860     	 str r0,[r7,#4]
  90 0008 0B46     	 mov r3,r1
  91 000a FB70     	 strb r3,[r7,#3]
 284:C:/Workspaces/DAVE-4.4.2-64Bit/GarbageCollector/XMC4200_GC/Libraries/XMCLib/inc\xmc_gpio.h ****   XMC_ASSERT("XMC_GPIO_SetOutputLow: Invalid port", XMC_GPIO_CHECK_OUTPUT_PORT(port));
 285:C:/Workspaces/DAVE-4.4.2-64Bit/GarbageCollector/XMC4200_GC/Libraries/XMCLib/inc\xmc_gpio.h **** 
 286:C:/Workspaces/DAVE-4.4.2-64Bit/GarbageCollector/XMC4200_GC/Libraries/XMCLib/inc\xmc_gpio.h ****   port->OMR = 0x10000U << pin;
  92              	 .loc 1 286 0
  93 000c FB78     	 ldrb r3,[r7,#3]
  94 000e 4FF48032 	 mov r2,#65536
  95 0012 9A40     	 lsls r2,r2,r3
  96 0014 7B68     	 ldr r3,[r7,#4]
  97 0016 5A60     	 str r2,[r3,#4]
 287:C:/Workspaces/DAVE-4.4.2-64Bit/GarbageCollector/XMC4200_GC/Libraries/XMCLib/inc\xmc_gpio.h **** }
  98              	 .loc 1 287 0
  99 0018 0C37     	 adds r7,r7,#12
 100              	.LCFI9:
 101              	 .cfi_def_cfa_offset 4
 102 001a BD46     	 mov sp,r7
 103              	.LCFI10:
 104              	 .cfi_def_cfa_register 13
 105              	 
 106 001c 5DF8047B 	 ldr r7,[sp],#4
 107              	.LCFI11:
 108              	 .cfi_restore 7
 109              	 .cfi_def_cfa_offset 0
 110 0020 7047     	 bx lr
 111              	 .cfi_endproc
 112              	.LFE140:
 114 0022 00BF     	 .section .text.XMC_GPIO_GetInput,"ax",%progbits
 115              	 .align 2
 116              	 .thumb
 117              	 .thumb_func
 119              	XMC_GPIO_GetInput:
 120              	.LFB142:
 288:C:/Workspaces/DAVE-4.4.2-64Bit/GarbageCollector/XMC4200_GC/Libraries/XMCLib/inc\xmc_gpio.h **** 
 289:C:/Workspaces/DAVE-4.4.2-64Bit/GarbageCollector/XMC4200_GC/Libraries/XMCLib/inc\xmc_gpio.h **** /**
 290:C:/Workspaces/DAVE-4.4.2-64Bit/GarbageCollector/XMC4200_GC/Libraries/XMCLib/inc\xmc_gpio.h ****  *
 291:C:/Workspaces/DAVE-4.4.2-64Bit/GarbageCollector/XMC4200_GC/Libraries/XMCLib/inc\xmc_gpio.h ****  * @param port constant pointer pointing to GPIO port, to access hardware register Pn_OMR.
 292:C:/Workspaces/DAVE-4.4.2-64Bit/GarbageCollector/XMC4200_GC/Libraries/XMCLib/inc\xmc_gpio.h ****  * @param pin  port pin number.
 293:C:/Workspaces/DAVE-4.4.2-64Bit/GarbageCollector/XMC4200_GC/Libraries/XMCLib/inc\xmc_gpio.h ****  *
 294:C:/Workspaces/DAVE-4.4.2-64Bit/GarbageCollector/XMC4200_GC/Libraries/XMCLib/inc\xmc_gpio.h ****  * @return None
 295:C:/Workspaces/DAVE-4.4.2-64Bit/GarbageCollector/XMC4200_GC/Libraries/XMCLib/inc\xmc_gpio.h ****  *
 296:C:/Workspaces/DAVE-4.4.2-64Bit/GarbageCollector/XMC4200_GC/Libraries/XMCLib/inc\xmc_gpio.h ****  * \par<b>Description:</b><br>
 297:C:/Workspaces/DAVE-4.4.2-64Bit/GarbageCollector/XMC4200_GC/Libraries/XMCLib/inc\xmc_gpio.h ****  * Configures port pin output to Toggle. It configures hardware registers Pn_OMR.
 298:C:/Workspaces/DAVE-4.4.2-64Bit/GarbageCollector/XMC4200_GC/Libraries/XMCLib/inc\xmc_gpio.h ****  *
 299:C:/Workspaces/DAVE-4.4.2-64Bit/GarbageCollector/XMC4200_GC/Libraries/XMCLib/inc\xmc_gpio.h ****  * \par<b>Related APIs:</b><BR>
 300:C:/Workspaces/DAVE-4.4.2-64Bit/GarbageCollector/XMC4200_GC/Libraries/XMCLib/inc\xmc_gpio.h ****  * XMC_GPIO_SetOutputHigh(), XMC_GPIO_SetOutputLow().
 301:C:/Workspaces/DAVE-4.4.2-64Bit/GarbageCollector/XMC4200_GC/Libraries/XMCLib/inc\xmc_gpio.h ****  *
 302:C:/Workspaces/DAVE-4.4.2-64Bit/GarbageCollector/XMC4200_GC/Libraries/XMCLib/inc\xmc_gpio.h ****  * \par<b>Note:</b><br>
 303:C:/Workspaces/DAVE-4.4.2-64Bit/GarbageCollector/XMC4200_GC/Libraries/XMCLib/inc\xmc_gpio.h ****  * Prior to this api, user has to configure port pin to output mode using XMC_GPIO_SetMode(). Regis
 304:C:/Workspaces/DAVE-4.4.2-64Bit/GarbageCollector/XMC4200_GC/Libraries/XMCLib/inc\xmc_gpio.h ****  * and does not contain any flip-flop. A read action delivers the value of 0.
 305:C:/Workspaces/DAVE-4.4.2-64Bit/GarbageCollector/XMC4200_GC/Libraries/XMCLib/inc\xmc_gpio.h ****  *
 306:C:/Workspaces/DAVE-4.4.2-64Bit/GarbageCollector/XMC4200_GC/Libraries/XMCLib/inc\xmc_gpio.h ****  */
 307:C:/Workspaces/DAVE-4.4.2-64Bit/GarbageCollector/XMC4200_GC/Libraries/XMCLib/inc\xmc_gpio.h **** 
 308:C:/Workspaces/DAVE-4.4.2-64Bit/GarbageCollector/XMC4200_GC/Libraries/XMCLib/inc\xmc_gpio.h **** __STATIC_INLINE void XMC_GPIO_ToggleOutput(XMC_GPIO_PORT_t *const port, const uint8_t pin)
 309:C:/Workspaces/DAVE-4.4.2-64Bit/GarbageCollector/XMC4200_GC/Libraries/XMCLib/inc\xmc_gpio.h **** {
 310:C:/Workspaces/DAVE-4.4.2-64Bit/GarbageCollector/XMC4200_GC/Libraries/XMCLib/inc\xmc_gpio.h ****   XMC_ASSERT("XMC_GPIO_ToggleOutput: Invalid port", XMC_GPIO_CHECK_OUTPUT_PORT(port));
 311:C:/Workspaces/DAVE-4.4.2-64Bit/GarbageCollector/XMC4200_GC/Libraries/XMCLib/inc\xmc_gpio.h **** 
 312:C:/Workspaces/DAVE-4.4.2-64Bit/GarbageCollector/XMC4200_GC/Libraries/XMCLib/inc\xmc_gpio.h ****   port->OMR = 0x10001U << pin;
 313:C:/Workspaces/DAVE-4.4.2-64Bit/GarbageCollector/XMC4200_GC/Libraries/XMCLib/inc\xmc_gpio.h **** }
 314:C:/Workspaces/DAVE-4.4.2-64Bit/GarbageCollector/XMC4200_GC/Libraries/XMCLib/inc\xmc_gpio.h **** 
 315:C:/Workspaces/DAVE-4.4.2-64Bit/GarbageCollector/XMC4200_GC/Libraries/XMCLib/inc\xmc_gpio.h **** /**
 316:C:/Workspaces/DAVE-4.4.2-64Bit/GarbageCollector/XMC4200_GC/Libraries/XMCLib/inc\xmc_gpio.h ****  *
 317:C:/Workspaces/DAVE-4.4.2-64Bit/GarbageCollector/XMC4200_GC/Libraries/XMCLib/inc\xmc_gpio.h ****  * @param port constant pointer pointing to GPIO port, to access hardware register Pn_IN.
 318:C:/Workspaces/DAVE-4.4.2-64Bit/GarbageCollector/XMC4200_GC/Libraries/XMCLib/inc\xmc_gpio.h ****  * @param pin  Port pin number.
 319:C:/Workspaces/DAVE-4.4.2-64Bit/GarbageCollector/XMC4200_GC/Libraries/XMCLib/inc\xmc_gpio.h ****  *
 320:C:/Workspaces/DAVE-4.4.2-64Bit/GarbageCollector/XMC4200_GC/Libraries/XMCLib/inc\xmc_gpio.h ****  * @return uint32_t pin logic level status.
 321:C:/Workspaces/DAVE-4.4.2-64Bit/GarbageCollector/XMC4200_GC/Libraries/XMCLib/inc\xmc_gpio.h ****  *
 322:C:/Workspaces/DAVE-4.4.2-64Bit/GarbageCollector/XMC4200_GC/Libraries/XMCLib/inc\xmc_gpio.h ****  *\par<b>Description:</b><br>
 323:C:/Workspaces/DAVE-4.4.2-64Bit/GarbageCollector/XMC4200_GC/Libraries/XMCLib/inc\xmc_gpio.h ****  * Reads the Pn_IN register and returns the current logical value at the GPIO pin.
 324:C:/Workspaces/DAVE-4.4.2-64Bit/GarbageCollector/XMC4200_GC/Libraries/XMCLib/inc\xmc_gpio.h ****  *
 325:C:/Workspaces/DAVE-4.4.2-64Bit/GarbageCollector/XMC4200_GC/Libraries/XMCLib/inc\xmc_gpio.h ****  * \par<b>Related APIs:</b><BR>
 326:C:/Workspaces/DAVE-4.4.2-64Bit/GarbageCollector/XMC4200_GC/Libraries/XMCLib/inc\xmc_gpio.h ****  * None
 327:C:/Workspaces/DAVE-4.4.2-64Bit/GarbageCollector/XMC4200_GC/Libraries/XMCLib/inc\xmc_gpio.h ****  *
 328:C:/Workspaces/DAVE-4.4.2-64Bit/GarbageCollector/XMC4200_GC/Libraries/XMCLib/inc\xmc_gpio.h ****  * \par<b>Note:</b><br>
 329:C:/Workspaces/DAVE-4.4.2-64Bit/GarbageCollector/XMC4200_GC/Libraries/XMCLib/inc\xmc_gpio.h ****  * Prior to this api, user has to configure port pin to input mode using XMC_GPIO_SetMode().
 330:C:/Workspaces/DAVE-4.4.2-64Bit/GarbageCollector/XMC4200_GC/Libraries/XMCLib/inc\xmc_gpio.h ****  *
 331:C:/Workspaces/DAVE-4.4.2-64Bit/GarbageCollector/XMC4200_GC/Libraries/XMCLib/inc\xmc_gpio.h ****  */
 332:C:/Workspaces/DAVE-4.4.2-64Bit/GarbageCollector/XMC4200_GC/Libraries/XMCLib/inc\xmc_gpio.h **** 
 333:C:/Workspaces/DAVE-4.4.2-64Bit/GarbageCollector/XMC4200_GC/Libraries/XMCLib/inc\xmc_gpio.h **** __STATIC_INLINE uint32_t XMC_GPIO_GetInput(XMC_GPIO_PORT_t *const port, const uint8_t pin)
 334:C:/Workspaces/DAVE-4.4.2-64Bit/GarbageCollector/XMC4200_GC/Libraries/XMCLib/inc\xmc_gpio.h **** {
 121              	 .loc 1 334 0
 122              	 .cfi_startproc
 123              	 
 124              	 
 125              	 
 126 0000 80B4     	 push {r7}
 127              	.LCFI12:
 128              	 .cfi_def_cfa_offset 4
 129              	 .cfi_offset 7,-4
 130 0002 83B0     	 sub sp,sp,#12
 131              	.LCFI13:
 132              	 .cfi_def_cfa_offset 16
 133 0004 00AF     	 add r7,sp,#0
 134              	.LCFI14:
 135              	 .cfi_def_cfa_register 7
 136 0006 7860     	 str r0,[r7,#4]
 137 0008 0B46     	 mov r3,r1
 138 000a FB70     	 strb r3,[r7,#3]
 335:C:/Workspaces/DAVE-4.4.2-64Bit/GarbageCollector/XMC4200_GC/Libraries/XMCLib/inc\xmc_gpio.h ****   XMC_ASSERT("XMC_GPIO_GetInput: Invalid port", XMC_GPIO_CHECK_PORT(port));
 336:C:/Workspaces/DAVE-4.4.2-64Bit/GarbageCollector/XMC4200_GC/Libraries/XMCLib/inc\xmc_gpio.h **** 
 337:C:/Workspaces/DAVE-4.4.2-64Bit/GarbageCollector/XMC4200_GC/Libraries/XMCLib/inc\xmc_gpio.h ****   return (((port->IN) >> pin) & 0x1U);
 139              	 .loc 1 337 0
 140 000c 7B68     	 ldr r3,[r7,#4]
 141 000e 5A6A     	 ldr r2,[r3,#36]
 142 0010 FB78     	 ldrb r3,[r7,#3]
 143 0012 22FA03F3 	 lsr r3,r2,r3
 144 0016 03F00103 	 and r3,r3,#1
 338:C:/Workspaces/DAVE-4.4.2-64Bit/GarbageCollector/XMC4200_GC/Libraries/XMCLib/inc\xmc_gpio.h **** }
 145              	 .loc 1 338 0
 146 001a 1846     	 mov r0,r3
 147 001c 0C37     	 adds r7,r7,#12
 148              	.LCFI15:
 149              	 .cfi_def_cfa_offset 4
 150 001e BD46     	 mov sp,r7
 151              	.LCFI16:
 152              	 .cfi_def_cfa_register 13
 153              	 
 154 0020 5DF8047B 	 ldr r7,[sp],#4
 155              	.LCFI17:
 156              	 .cfi_restore 7
 157              	 .cfi_def_cfa_offset 0
 158 0024 7047     	 bx lr
 159              	 .cfi_endproc
 160              	.LFE142:
 162 0026 00BF     	 .section .text.DIGITAL_IO_SetOutputHigh,"ax",%progbits
 163              	 .align 2
 164              	 .thumb
 165              	 .thumb_func
 167              	DIGITAL_IO_SetOutputHigh:
 168              	.LFB147:
 169              	 .file 2 "C:/Workspaces/DAVE-4.4.2-64Bit/GarbageCollector/XMC4200_GC/Dave/Generated/DIGITAL_IO/digital_io.h"
   1:C:/Workspaces/DAVE-4.4.2-64Bit/GarbageCollector/XMC4200_GC/Dave/Generated/DIGITAL_IO\digital_io.h **** /*
   2:C:/Workspaces/DAVE-4.4.2-64Bit/GarbageCollector/XMC4200_GC/Dave/Generated/DIGITAL_IO\digital_io.h ****  *
   3:C:/Workspaces/DAVE-4.4.2-64Bit/GarbageCollector/XMC4200_GC/Dave/Generated/DIGITAL_IO\digital_io.h ****  * @file digital_io.h
   4:C:/Workspaces/DAVE-4.4.2-64Bit/GarbageCollector/XMC4200_GC/Dave/Generated/DIGITAL_IO\digital_io.h ****  * @date 2016-07-08
   5:C:/Workspaces/DAVE-4.4.2-64Bit/GarbageCollector/XMC4200_GC/Dave/Generated/DIGITAL_IO\digital_io.h ****  *
   6:C:/Workspaces/DAVE-4.4.2-64Bit/GarbageCollector/XMC4200_GC/Dave/Generated/DIGITAL_IO\digital_io.h ****  * NOTE:
   7:C:/Workspaces/DAVE-4.4.2-64Bit/GarbageCollector/XMC4200_GC/Dave/Generated/DIGITAL_IO\digital_io.h ****  * This file is generated by DAVE. Any manual modification done to this file will be lost when the 
   8:C:/Workspaces/DAVE-4.4.2-64Bit/GarbageCollector/XMC4200_GC/Dave/Generated/DIGITAL_IO\digital_io.h ****  *
   9:C:/Workspaces/DAVE-4.4.2-64Bit/GarbageCollector/XMC4200_GC/Dave/Generated/DIGITAL_IO\digital_io.h ****  * @cond
  10:C:/Workspaces/DAVE-4.4.2-64Bit/GarbageCollector/XMC4200_GC/Dave/Generated/DIGITAL_IO\digital_io.h ****  **************************************************************************************************
  11:C:/Workspaces/DAVE-4.4.2-64Bit/GarbageCollector/XMC4200_GC/Dave/Generated/DIGITAL_IO\digital_io.h ****  * DIGITAL_IO v4.0.16 - The DIGITAL_IO APP is used to configure a port pin as digital Input/Output.
  12:C:/Workspaces/DAVE-4.4.2-64Bit/GarbageCollector/XMC4200_GC/Dave/Generated/DIGITAL_IO\digital_io.h ****  *
  13:C:/Workspaces/DAVE-4.4.2-64Bit/GarbageCollector/XMC4200_GC/Dave/Generated/DIGITAL_IO\digital_io.h ****  * Copyright (c) 2015-2016, Infineon Technologies AG
  14:C:/Workspaces/DAVE-4.4.2-64Bit/GarbageCollector/XMC4200_GC/Dave/Generated/DIGITAL_IO\digital_io.h ****  * All rights reserved.
  15:C:/Workspaces/DAVE-4.4.2-64Bit/GarbageCollector/XMC4200_GC/Dave/Generated/DIGITAL_IO\digital_io.h ****  *
  16:C:/Workspaces/DAVE-4.4.2-64Bit/GarbageCollector/XMC4200_GC/Dave/Generated/DIGITAL_IO\digital_io.h ****  * Redistribution and use in source and binary forms, with or without modification,are permitted pr
  17:C:/Workspaces/DAVE-4.4.2-64Bit/GarbageCollector/XMC4200_GC/Dave/Generated/DIGITAL_IO\digital_io.h ****  * following conditions are met:
  18:C:/Workspaces/DAVE-4.4.2-64Bit/GarbageCollector/XMC4200_GC/Dave/Generated/DIGITAL_IO\digital_io.h ****  *
  19:C:/Workspaces/DAVE-4.4.2-64Bit/GarbageCollector/XMC4200_GC/Dave/Generated/DIGITAL_IO\digital_io.h ****  *   Redistributions of source code must retain the above copyright notice, this list of conditions
  20:C:/Workspaces/DAVE-4.4.2-64Bit/GarbageCollector/XMC4200_GC/Dave/Generated/DIGITAL_IO\digital_io.h ****  *   disclaimer.
  21:C:/Workspaces/DAVE-4.4.2-64Bit/GarbageCollector/XMC4200_GC/Dave/Generated/DIGITAL_IO\digital_io.h ****  *
  22:C:/Workspaces/DAVE-4.4.2-64Bit/GarbageCollector/XMC4200_GC/Dave/Generated/DIGITAL_IO\digital_io.h ****  *   Redistributions in binary form must reproduce the above copyright notice, this list of conditi
  23:C:/Workspaces/DAVE-4.4.2-64Bit/GarbageCollector/XMC4200_GC/Dave/Generated/DIGITAL_IO\digital_io.h ****  *   following disclaimer in the documentation and/or other materials provided with the distributio
  24:C:/Workspaces/DAVE-4.4.2-64Bit/GarbageCollector/XMC4200_GC/Dave/Generated/DIGITAL_IO\digital_io.h ****  *
  25:C:/Workspaces/DAVE-4.4.2-64Bit/GarbageCollector/XMC4200_GC/Dave/Generated/DIGITAL_IO\digital_io.h ****  *   Neither the name of the copyright holders nor the names of its contributors may be used to end
  26:C:/Workspaces/DAVE-4.4.2-64Bit/GarbageCollector/XMC4200_GC/Dave/Generated/DIGITAL_IO\digital_io.h ****  *   products derived from this software without specific prior written permission.
  27:C:/Workspaces/DAVE-4.4.2-64Bit/GarbageCollector/XMC4200_GC/Dave/Generated/DIGITAL_IO\digital_io.h ****  *
  28:C:/Workspaces/DAVE-4.4.2-64Bit/GarbageCollector/XMC4200_GC/Dave/Generated/DIGITAL_IO\digital_io.h ****  * THIS SOFTWARE IS PROVIDED BY THE COPYRIGHT HOLDERS AND CONTRIBUTORS "AS IS" AND ANY EXPRESS OR I
  29:C:/Workspaces/DAVE-4.4.2-64Bit/GarbageCollector/XMC4200_GC/Dave/Generated/DIGITAL_IO\digital_io.h ****  * INCLUDING, BUT NOT LIMITED TO, THE IMPLIED WARRANTIES OF MERCHANTABILITY AND FITNESS FOR A PARTI
  30:C:/Workspaces/DAVE-4.4.2-64Bit/GarbageCollector/XMC4200_GC/Dave/Generated/DIGITAL_IO\digital_io.h ****  * DISCLAIMED. IN NO EVENT SHALL THE COPYRIGHT HOLDER OR CONTRIBUTORS BE LIABLE  FOR ANY DIRECT, IN
  31:C:/Workspaces/DAVE-4.4.2-64Bit/GarbageCollector/XMC4200_GC/Dave/Generated/DIGITAL_IO\digital_io.h ****  * SPECIAL, EXEMPLARY, OR CONSEQUENTIAL DAMAGES (INCLUDING, BUT NOT LIMITED TO, PROCUREMENT OF SUBS
  32:C:/Workspaces/DAVE-4.4.2-64Bit/GarbageCollector/XMC4200_GC/Dave/Generated/DIGITAL_IO\digital_io.h ****  * SERVICES; LOSS OF USE, DATA, OR PROFITS; OR BUSINESS INTERRUPTION) HOWEVER CAUSED AND ON ANY THE
  33:C:/Workspaces/DAVE-4.4.2-64Bit/GarbageCollector/XMC4200_GC/Dave/Generated/DIGITAL_IO\digital_io.h ****  * WHETHER IN CONTRACT, STRICT LIABILITY,OR TORT (INCLUDING NEGLIGENCE OR OTHERWISE) ARISING IN ANY
  34:C:/Workspaces/DAVE-4.4.2-64Bit/GarbageCollector/XMC4200_GC/Dave/Generated/DIGITAL_IO\digital_io.h ****  * USE OF THIS SOFTWARE, EVEN IF ADVISED OF THE POSSIBILITY OF SUCH DAMAGE.
  35:C:/Workspaces/DAVE-4.4.2-64Bit/GarbageCollector/XMC4200_GC/Dave/Generated/DIGITAL_IO\digital_io.h ****  *
  36:C:/Workspaces/DAVE-4.4.2-64Bit/GarbageCollector/XMC4200_GC/Dave/Generated/DIGITAL_IO\digital_io.h ****  * To improve the quality of the software, users are encouraged to share modifications, enhancement
  37:C:/Workspaces/DAVE-4.4.2-64Bit/GarbageCollector/XMC4200_GC/Dave/Generated/DIGITAL_IO\digital_io.h ****  * with Infineon Technologies AG (dave@infineon.com).
  38:C:/Workspaces/DAVE-4.4.2-64Bit/GarbageCollector/XMC4200_GC/Dave/Generated/DIGITAL_IO\digital_io.h ****  **************************************************************************************************
  39:C:/Workspaces/DAVE-4.4.2-64Bit/GarbageCollector/XMC4200_GC/Dave/Generated/DIGITAL_IO\digital_io.h ****  *
  40:C:/Workspaces/DAVE-4.4.2-64Bit/GarbageCollector/XMC4200_GC/Dave/Generated/DIGITAL_IO\digital_io.h ****  * Change History
  41:C:/Workspaces/DAVE-4.4.2-64Bit/GarbageCollector/XMC4200_GC/Dave/Generated/DIGITAL_IO\digital_io.h ****  * --------------
  42:C:/Workspaces/DAVE-4.4.2-64Bit/GarbageCollector/XMC4200_GC/Dave/Generated/DIGITAL_IO\digital_io.h ****  *
  43:C:/Workspaces/DAVE-4.4.2-64Bit/GarbageCollector/XMC4200_GC/Dave/Generated/DIGITAL_IO\digital_io.h ****  * 2015-02-16
  44:C:/Workspaces/DAVE-4.4.2-64Bit/GarbageCollector/XMC4200_GC/Dave/Generated/DIGITAL_IO\digital_io.h ****  *     - Initial version
  45:C:/Workspaces/DAVE-4.4.2-64Bit/GarbageCollector/XMC4200_GC/Dave/Generated/DIGITAL_IO\digital_io.h ****  *
  46:C:/Workspaces/DAVE-4.4.2-64Bit/GarbageCollector/XMC4200_GC/Dave/Generated/DIGITAL_IO\digital_io.h ****  * 2015-04-22
  47:C:/Workspaces/DAVE-4.4.2-64Bit/GarbageCollector/XMC4200_GC/Dave/Generated/DIGITAL_IO\digital_io.h ****  *     - XMC_ASSERT is added in static inline functions.<br>
  48:C:/Workspaces/DAVE-4.4.2-64Bit/GarbageCollector/XMC4200_GC/Dave/Generated/DIGITAL_IO\digital_io.h ****  *
  49:C:/Workspaces/DAVE-4.4.2-64Bit/GarbageCollector/XMC4200_GC/Dave/Generated/DIGITAL_IO\digital_io.h ****  * 2015-06-20
  50:C:/Workspaces/DAVE-4.4.2-64Bit/GarbageCollector/XMC4200_GC/Dave/Generated/DIGITAL_IO\digital_io.h ****  *     - Version check added for XMCLib dependency.<br>
  51:C:/Workspaces/DAVE-4.4.2-64Bit/GarbageCollector/XMC4200_GC/Dave/Generated/DIGITAL_IO\digital_io.h ****  *
  52:C:/Workspaces/DAVE-4.4.2-64Bit/GarbageCollector/XMC4200_GC/Dave/Generated/DIGITAL_IO\digital_io.h ****  * 2015-12-22
  53:C:/Workspaces/DAVE-4.4.2-64Bit/GarbageCollector/XMC4200_GC/Dave/Generated/DIGITAL_IO\digital_io.h ****  *     - Added hardware controlled IO feature.
  54:C:/Workspaces/DAVE-4.4.2-64Bit/GarbageCollector/XMC4200_GC/Dave/Generated/DIGITAL_IO\digital_io.h ****  * 2016-07-08:
  55:C:/Workspaces/DAVE-4.4.2-64Bit/GarbageCollector/XMC4200_GC/Dave/Generated/DIGITAL_IO\digital_io.h ****  *     - Fixed incorrect case for an included header.<br>
  56:C:/Workspaces/DAVE-4.4.2-64Bit/GarbageCollector/XMC4200_GC/Dave/Generated/DIGITAL_IO\digital_io.h ****  *
  57:C:/Workspaces/DAVE-4.4.2-64Bit/GarbageCollector/XMC4200_GC/Dave/Generated/DIGITAL_IO\digital_io.h ****  * @endcond
  58:C:/Workspaces/DAVE-4.4.2-64Bit/GarbageCollector/XMC4200_GC/Dave/Generated/DIGITAL_IO\digital_io.h ****  *
  59:C:/Workspaces/DAVE-4.4.2-64Bit/GarbageCollector/XMC4200_GC/Dave/Generated/DIGITAL_IO\digital_io.h ****  */
  60:C:/Workspaces/DAVE-4.4.2-64Bit/GarbageCollector/XMC4200_GC/Dave/Generated/DIGITAL_IO\digital_io.h **** 
  61:C:/Workspaces/DAVE-4.4.2-64Bit/GarbageCollector/XMC4200_GC/Dave/Generated/DIGITAL_IO\digital_io.h **** /**************************************************************************************************
  62:C:/Workspaces/DAVE-4.4.2-64Bit/GarbageCollector/XMC4200_GC/Dave/Generated/DIGITAL_IO\digital_io.h ****  * HEADER FILES
  63:C:/Workspaces/DAVE-4.4.2-64Bit/GarbageCollector/XMC4200_GC/Dave/Generated/DIGITAL_IO\digital_io.h ****  **************************************************************************************************
  64:C:/Workspaces/DAVE-4.4.2-64Bit/GarbageCollector/XMC4200_GC/Dave/Generated/DIGITAL_IO\digital_io.h **** 
  65:C:/Workspaces/DAVE-4.4.2-64Bit/GarbageCollector/XMC4200_GC/Dave/Generated/DIGITAL_IO\digital_io.h **** #ifndef DIGITAL_IO_H
  66:C:/Workspaces/DAVE-4.4.2-64Bit/GarbageCollector/XMC4200_GC/Dave/Generated/DIGITAL_IO\digital_io.h **** #define DIGITAL_IO_H
  67:C:/Workspaces/DAVE-4.4.2-64Bit/GarbageCollector/XMC4200_GC/Dave/Generated/DIGITAL_IO\digital_io.h **** 
  68:C:/Workspaces/DAVE-4.4.2-64Bit/GarbageCollector/XMC4200_GC/Dave/Generated/DIGITAL_IO\digital_io.h **** #include <xmc_gpio.h>
  69:C:/Workspaces/DAVE-4.4.2-64Bit/GarbageCollector/XMC4200_GC/Dave/Generated/DIGITAL_IO\digital_io.h **** #include <DAVE_Common.h>
  70:C:/Workspaces/DAVE-4.4.2-64Bit/GarbageCollector/XMC4200_GC/Dave/Generated/DIGITAL_IO\digital_io.h **** #include "digital_io_conf.h"
  71:C:/Workspaces/DAVE-4.4.2-64Bit/GarbageCollector/XMC4200_GC/Dave/Generated/DIGITAL_IO\digital_io.h **** 
  72:C:/Workspaces/DAVE-4.4.2-64Bit/GarbageCollector/XMC4200_GC/Dave/Generated/DIGITAL_IO\digital_io.h **** /**************************************************************************************************
  73:C:/Workspaces/DAVE-4.4.2-64Bit/GarbageCollector/XMC4200_GC/Dave/Generated/DIGITAL_IO\digital_io.h ****  * MACROS
  74:C:/Workspaces/DAVE-4.4.2-64Bit/GarbageCollector/XMC4200_GC/Dave/Generated/DIGITAL_IO\digital_io.h ****  **************************************************************************************************
  75:C:/Workspaces/DAVE-4.4.2-64Bit/GarbageCollector/XMC4200_GC/Dave/Generated/DIGITAL_IO\digital_io.h **** #if (!((XMC_LIB_MAJOR_VERSION == 2U) && \
  76:C:/Workspaces/DAVE-4.4.2-64Bit/GarbageCollector/XMC4200_GC/Dave/Generated/DIGITAL_IO\digital_io.h ****        (XMC_LIB_MINOR_VERSION >= 0U) && \
  77:C:/Workspaces/DAVE-4.4.2-64Bit/GarbageCollector/XMC4200_GC/Dave/Generated/DIGITAL_IO\digital_io.h ****        (XMC_LIB_PATCH_VERSION >= 0U)))
  78:C:/Workspaces/DAVE-4.4.2-64Bit/GarbageCollector/XMC4200_GC/Dave/Generated/DIGITAL_IO\digital_io.h **** #error "DIGITAL_IO requires XMC Peripheral Library v2.0.0 or higher"
  79:C:/Workspaces/DAVE-4.4.2-64Bit/GarbageCollector/XMC4200_GC/Dave/Generated/DIGITAL_IO\digital_io.h **** #endif
  80:C:/Workspaces/DAVE-4.4.2-64Bit/GarbageCollector/XMC4200_GC/Dave/Generated/DIGITAL_IO\digital_io.h **** 
  81:C:/Workspaces/DAVE-4.4.2-64Bit/GarbageCollector/XMC4200_GC/Dave/Generated/DIGITAL_IO\digital_io.h ****  /*************************************************************************************************
  82:C:/Workspaces/DAVE-4.4.2-64Bit/GarbageCollector/XMC4200_GC/Dave/Generated/DIGITAL_IO\digital_io.h ****  * ENUMS
  83:C:/Workspaces/DAVE-4.4.2-64Bit/GarbageCollector/XMC4200_GC/Dave/Generated/DIGITAL_IO\digital_io.h ****  **************************************************************************************************
  84:C:/Workspaces/DAVE-4.4.2-64Bit/GarbageCollector/XMC4200_GC/Dave/Generated/DIGITAL_IO\digital_io.h **** 
  85:C:/Workspaces/DAVE-4.4.2-64Bit/GarbageCollector/XMC4200_GC/Dave/Generated/DIGITAL_IO\digital_io.h **** /**
  86:C:/Workspaces/DAVE-4.4.2-64Bit/GarbageCollector/XMC4200_GC/Dave/Generated/DIGITAL_IO\digital_io.h **** * @ingroup DIGITAL_IO_enumerations
  87:C:/Workspaces/DAVE-4.4.2-64Bit/GarbageCollector/XMC4200_GC/Dave/Generated/DIGITAL_IO\digital_io.h **** * @{
  88:C:/Workspaces/DAVE-4.4.2-64Bit/GarbageCollector/XMC4200_GC/Dave/Generated/DIGITAL_IO\digital_io.h **** */
  89:C:/Workspaces/DAVE-4.4.2-64Bit/GarbageCollector/XMC4200_GC/Dave/Generated/DIGITAL_IO\digital_io.h **** 
  90:C:/Workspaces/DAVE-4.4.2-64Bit/GarbageCollector/XMC4200_GC/Dave/Generated/DIGITAL_IO\digital_io.h **** /**
  91:C:/Workspaces/DAVE-4.4.2-64Bit/GarbageCollector/XMC4200_GC/Dave/Generated/DIGITAL_IO\digital_io.h **** * @brief Initialization status of DIGITAL_IO APP.
  92:C:/Workspaces/DAVE-4.4.2-64Bit/GarbageCollector/XMC4200_GC/Dave/Generated/DIGITAL_IO\digital_io.h **** */
  93:C:/Workspaces/DAVE-4.4.2-64Bit/GarbageCollector/XMC4200_GC/Dave/Generated/DIGITAL_IO\digital_io.h **** typedef enum DIGITAL_IO_STATUS
  94:C:/Workspaces/DAVE-4.4.2-64Bit/GarbageCollector/XMC4200_GC/Dave/Generated/DIGITAL_IO\digital_io.h **** {
  95:C:/Workspaces/DAVE-4.4.2-64Bit/GarbageCollector/XMC4200_GC/Dave/Generated/DIGITAL_IO\digital_io.h ****   DIGITAL_IO_STATUS_OK = 0U,/**< 0=Status OK */
  96:C:/Workspaces/DAVE-4.4.2-64Bit/GarbageCollector/XMC4200_GC/Dave/Generated/DIGITAL_IO\digital_io.h ****   DIGITAL_IO_STATUS_FAILURE = 1U/**< 1=Status Failed */
  97:C:/Workspaces/DAVE-4.4.2-64Bit/GarbageCollector/XMC4200_GC/Dave/Generated/DIGITAL_IO\digital_io.h **** } DIGITAL_IO_STATUS_t;
  98:C:/Workspaces/DAVE-4.4.2-64Bit/GarbageCollector/XMC4200_GC/Dave/Generated/DIGITAL_IO\digital_io.h **** 
  99:C:/Workspaces/DAVE-4.4.2-64Bit/GarbageCollector/XMC4200_GC/Dave/Generated/DIGITAL_IO\digital_io.h **** /**
 100:C:/Workspaces/DAVE-4.4.2-64Bit/GarbageCollector/XMC4200_GC/Dave/Generated/DIGITAL_IO\digital_io.h **** * @}
 101:C:/Workspaces/DAVE-4.4.2-64Bit/GarbageCollector/XMC4200_GC/Dave/Generated/DIGITAL_IO\digital_io.h **** */
 102:C:/Workspaces/DAVE-4.4.2-64Bit/GarbageCollector/XMC4200_GC/Dave/Generated/DIGITAL_IO\digital_io.h **** 
 103:C:/Workspaces/DAVE-4.4.2-64Bit/GarbageCollector/XMC4200_GC/Dave/Generated/DIGITAL_IO\digital_io.h **** /**************************************************************************************************
 104:C:/Workspaces/DAVE-4.4.2-64Bit/GarbageCollector/XMC4200_GC/Dave/Generated/DIGITAL_IO\digital_io.h ****  * DATA STRUCTURES
 105:C:/Workspaces/DAVE-4.4.2-64Bit/GarbageCollector/XMC4200_GC/Dave/Generated/DIGITAL_IO\digital_io.h ****  **************************************************************************************************
 106:C:/Workspaces/DAVE-4.4.2-64Bit/GarbageCollector/XMC4200_GC/Dave/Generated/DIGITAL_IO\digital_io.h **** /**
 107:C:/Workspaces/DAVE-4.4.2-64Bit/GarbageCollector/XMC4200_GC/Dave/Generated/DIGITAL_IO\digital_io.h **** * @ingroup DIGITAL_IO_datastructures
 108:C:/Workspaces/DAVE-4.4.2-64Bit/GarbageCollector/XMC4200_GC/Dave/Generated/DIGITAL_IO\digital_io.h **** * @{
 109:C:/Workspaces/DAVE-4.4.2-64Bit/GarbageCollector/XMC4200_GC/Dave/Generated/DIGITAL_IO\digital_io.h **** */
 110:C:/Workspaces/DAVE-4.4.2-64Bit/GarbageCollector/XMC4200_GC/Dave/Generated/DIGITAL_IO\digital_io.h **** 
 111:C:/Workspaces/DAVE-4.4.2-64Bit/GarbageCollector/XMC4200_GC/Dave/Generated/DIGITAL_IO\digital_io.h **** /**
 112:C:/Workspaces/DAVE-4.4.2-64Bit/GarbageCollector/XMC4200_GC/Dave/Generated/DIGITAL_IO\digital_io.h **** * @brief Initialization data structure of DIGITAL_IO APP
 113:C:/Workspaces/DAVE-4.4.2-64Bit/GarbageCollector/XMC4200_GC/Dave/Generated/DIGITAL_IO\digital_io.h **** */
 114:C:/Workspaces/DAVE-4.4.2-64Bit/GarbageCollector/XMC4200_GC/Dave/Generated/DIGITAL_IO\digital_io.h **** typedef struct DIGITAL_IO
 115:C:/Workspaces/DAVE-4.4.2-64Bit/GarbageCollector/XMC4200_GC/Dave/Generated/DIGITAL_IO\digital_io.h **** {
 116:C:/Workspaces/DAVE-4.4.2-64Bit/GarbageCollector/XMC4200_GC/Dave/Generated/DIGITAL_IO\digital_io.h ****   XMC_GPIO_PORT_t *const gpio_port;             /**< port number */
 117:C:/Workspaces/DAVE-4.4.2-64Bit/GarbageCollector/XMC4200_GC/Dave/Generated/DIGITAL_IO\digital_io.h ****   const XMC_GPIO_CONFIG_t gpio_config;          /**< mode, initial output level and pad driver stre
 118:C:/Workspaces/DAVE-4.4.2-64Bit/GarbageCollector/XMC4200_GC/Dave/Generated/DIGITAL_IO\digital_io.h ****   const uint8_t gpio_pin;                       /**< pin number */
 119:C:/Workspaces/DAVE-4.4.2-64Bit/GarbageCollector/XMC4200_GC/Dave/Generated/DIGITAL_IO\digital_io.h ****   const XMC_GPIO_HWCTRL_t hwctrl;               /**< Hardware port control */
 120:C:/Workspaces/DAVE-4.4.2-64Bit/GarbageCollector/XMC4200_GC/Dave/Generated/DIGITAL_IO\digital_io.h **** } DIGITAL_IO_t;
 121:C:/Workspaces/DAVE-4.4.2-64Bit/GarbageCollector/XMC4200_GC/Dave/Generated/DIGITAL_IO\digital_io.h **** 
 122:C:/Workspaces/DAVE-4.4.2-64Bit/GarbageCollector/XMC4200_GC/Dave/Generated/DIGITAL_IO\digital_io.h **** 
 123:C:/Workspaces/DAVE-4.4.2-64Bit/GarbageCollector/XMC4200_GC/Dave/Generated/DIGITAL_IO\digital_io.h **** /**
 124:C:/Workspaces/DAVE-4.4.2-64Bit/GarbageCollector/XMC4200_GC/Dave/Generated/DIGITAL_IO\digital_io.h **** * @}
 125:C:/Workspaces/DAVE-4.4.2-64Bit/GarbageCollector/XMC4200_GC/Dave/Generated/DIGITAL_IO\digital_io.h **** */
 126:C:/Workspaces/DAVE-4.4.2-64Bit/GarbageCollector/XMC4200_GC/Dave/Generated/DIGITAL_IO\digital_io.h **** 
 127:C:/Workspaces/DAVE-4.4.2-64Bit/GarbageCollector/XMC4200_GC/Dave/Generated/DIGITAL_IO\digital_io.h **** 
 128:C:/Workspaces/DAVE-4.4.2-64Bit/GarbageCollector/XMC4200_GC/Dave/Generated/DIGITAL_IO\digital_io.h **** /**************************************************************************************************
 129:C:/Workspaces/DAVE-4.4.2-64Bit/GarbageCollector/XMC4200_GC/Dave/Generated/DIGITAL_IO\digital_io.h ****  * API Prototypes
 130:C:/Workspaces/DAVE-4.4.2-64Bit/GarbageCollector/XMC4200_GC/Dave/Generated/DIGITAL_IO\digital_io.h ****  **************************************************************************************************
 131:C:/Workspaces/DAVE-4.4.2-64Bit/GarbageCollector/XMC4200_GC/Dave/Generated/DIGITAL_IO\digital_io.h **** 
 132:C:/Workspaces/DAVE-4.4.2-64Bit/GarbageCollector/XMC4200_GC/Dave/Generated/DIGITAL_IO\digital_io.h **** 
 133:C:/Workspaces/DAVE-4.4.2-64Bit/GarbageCollector/XMC4200_GC/Dave/Generated/DIGITAL_IO\digital_io.h **** #ifdef __cplusplus
 134:C:/Workspaces/DAVE-4.4.2-64Bit/GarbageCollector/XMC4200_GC/Dave/Generated/DIGITAL_IO\digital_io.h **** extern "C" {
 135:C:/Workspaces/DAVE-4.4.2-64Bit/GarbageCollector/XMC4200_GC/Dave/Generated/DIGITAL_IO\digital_io.h **** #endif
 136:C:/Workspaces/DAVE-4.4.2-64Bit/GarbageCollector/XMC4200_GC/Dave/Generated/DIGITAL_IO\digital_io.h **** 
 137:C:/Workspaces/DAVE-4.4.2-64Bit/GarbageCollector/XMC4200_GC/Dave/Generated/DIGITAL_IO\digital_io.h **** /**
 138:C:/Workspaces/DAVE-4.4.2-64Bit/GarbageCollector/XMC4200_GC/Dave/Generated/DIGITAL_IO\digital_io.h **** * @ingroup DIGITAL_IO_apidoc
 139:C:/Workspaces/DAVE-4.4.2-64Bit/GarbageCollector/XMC4200_GC/Dave/Generated/DIGITAL_IO\digital_io.h **** * @{
 140:C:/Workspaces/DAVE-4.4.2-64Bit/GarbageCollector/XMC4200_GC/Dave/Generated/DIGITAL_IO\digital_io.h **** */
 141:C:/Workspaces/DAVE-4.4.2-64Bit/GarbageCollector/XMC4200_GC/Dave/Generated/DIGITAL_IO\digital_io.h **** 
 142:C:/Workspaces/DAVE-4.4.2-64Bit/GarbageCollector/XMC4200_GC/Dave/Generated/DIGITAL_IO\digital_io.h **** 
 143:C:/Workspaces/DAVE-4.4.2-64Bit/GarbageCollector/XMC4200_GC/Dave/Generated/DIGITAL_IO\digital_io.h **** 
 144:C:/Workspaces/DAVE-4.4.2-64Bit/GarbageCollector/XMC4200_GC/Dave/Generated/DIGITAL_IO\digital_io.h **** /**
 145:C:/Workspaces/DAVE-4.4.2-64Bit/GarbageCollector/XMC4200_GC/Dave/Generated/DIGITAL_IO\digital_io.h **** * @brief Get DIGITAL_IO APP version
 146:C:/Workspaces/DAVE-4.4.2-64Bit/GarbageCollector/XMC4200_GC/Dave/Generated/DIGITAL_IO\digital_io.h **** * @return DAVE_APP_VERSION_t APP version information (major, minor and patch number)
 147:C:/Workspaces/DAVE-4.4.2-64Bit/GarbageCollector/XMC4200_GC/Dave/Generated/DIGITAL_IO\digital_io.h **** *
 148:C:/Workspaces/DAVE-4.4.2-64Bit/GarbageCollector/XMC4200_GC/Dave/Generated/DIGITAL_IO\digital_io.h **** * \par<b>Description: </b><br>
 149:C:/Workspaces/DAVE-4.4.2-64Bit/GarbageCollector/XMC4200_GC/Dave/Generated/DIGITAL_IO\digital_io.h **** * The function can be used to check application software compatibility with a
 150:C:/Workspaces/DAVE-4.4.2-64Bit/GarbageCollector/XMC4200_GC/Dave/Generated/DIGITAL_IO\digital_io.h **** * specific version of the APP.
 151:C:/Workspaces/DAVE-4.4.2-64Bit/GarbageCollector/XMC4200_GC/Dave/Generated/DIGITAL_IO\digital_io.h **** *
 152:C:/Workspaces/DAVE-4.4.2-64Bit/GarbageCollector/XMC4200_GC/Dave/Generated/DIGITAL_IO\digital_io.h **** * Example Usage:
 153:C:/Workspaces/DAVE-4.4.2-64Bit/GarbageCollector/XMC4200_GC/Dave/Generated/DIGITAL_IO\digital_io.h **** *
 154:C:/Workspaces/DAVE-4.4.2-64Bit/GarbageCollector/XMC4200_GC/Dave/Generated/DIGITAL_IO\digital_io.h **** * @code
 155:C:/Workspaces/DAVE-4.4.2-64Bit/GarbageCollector/XMC4200_GC/Dave/Generated/DIGITAL_IO\digital_io.h **** * #include <DAVE.h>
 156:C:/Workspaces/DAVE-4.4.2-64Bit/GarbageCollector/XMC4200_GC/Dave/Generated/DIGITAL_IO\digital_io.h **** *
 157:C:/Workspaces/DAVE-4.4.2-64Bit/GarbageCollector/XMC4200_GC/Dave/Generated/DIGITAL_IO\digital_io.h **** * int main(void)
 158:C:/Workspaces/DAVE-4.4.2-64Bit/GarbageCollector/XMC4200_GC/Dave/Generated/DIGITAL_IO\digital_io.h **** * {
 159:C:/Workspaces/DAVE-4.4.2-64Bit/GarbageCollector/XMC4200_GC/Dave/Generated/DIGITAL_IO\digital_io.h **** *   DAVE_STATUS_t init_status;
 160:C:/Workspaces/DAVE-4.4.2-64Bit/GarbageCollector/XMC4200_GC/Dave/Generated/DIGITAL_IO\digital_io.h **** *   DAVE_APP_VERSION_t version;
 161:C:/Workspaces/DAVE-4.4.2-64Bit/GarbageCollector/XMC4200_GC/Dave/Generated/DIGITAL_IO\digital_io.h **** *
 162:C:/Workspaces/DAVE-4.4.2-64Bit/GarbageCollector/XMC4200_GC/Dave/Generated/DIGITAL_IO\digital_io.h **** *   // Initialize DIGITAL_IO APP:
 163:C:/Workspaces/DAVE-4.4.2-64Bit/GarbageCollector/XMC4200_GC/Dave/Generated/DIGITAL_IO\digital_io.h **** *   // DIGITAL_IO_Init() is called from within DAVE_Init().
 164:C:/Workspaces/DAVE-4.4.2-64Bit/GarbageCollector/XMC4200_GC/Dave/Generated/DIGITAL_IO\digital_io.h **** *   init_status = DAVE_Init();
 165:C:/Workspaces/DAVE-4.4.2-64Bit/GarbageCollector/XMC4200_GC/Dave/Generated/DIGITAL_IO\digital_io.h **** *   if(init_status == DAVE_STATUS_SUCCESS)
 166:C:/Workspaces/DAVE-4.4.2-64Bit/GarbageCollector/XMC4200_GC/Dave/Generated/DIGITAL_IO\digital_io.h **** *   {
 167:C:/Workspaces/DAVE-4.4.2-64Bit/GarbageCollector/XMC4200_GC/Dave/Generated/DIGITAL_IO\digital_io.h **** *     version = DIGITAL_IO_GetAppVersion();
 168:C:/Workspaces/DAVE-4.4.2-64Bit/GarbageCollector/XMC4200_GC/Dave/Generated/DIGITAL_IO\digital_io.h **** *     if (version.major != 4U) {
 169:C:/Workspaces/DAVE-4.4.2-64Bit/GarbageCollector/XMC4200_GC/Dave/Generated/DIGITAL_IO\digital_io.h **** *     // Probably, not the right version.
 170:C:/Workspaces/DAVE-4.4.2-64Bit/GarbageCollector/XMC4200_GC/Dave/Generated/DIGITAL_IO\digital_io.h **** *     }
 171:C:/Workspaces/DAVE-4.4.2-64Bit/GarbageCollector/XMC4200_GC/Dave/Generated/DIGITAL_IO\digital_io.h **** *   }
 172:C:/Workspaces/DAVE-4.4.2-64Bit/GarbageCollector/XMC4200_GC/Dave/Generated/DIGITAL_IO\digital_io.h **** *
 173:C:/Workspaces/DAVE-4.4.2-64Bit/GarbageCollector/XMC4200_GC/Dave/Generated/DIGITAL_IO\digital_io.h **** *     // More code here
 174:C:/Workspaces/DAVE-4.4.2-64Bit/GarbageCollector/XMC4200_GC/Dave/Generated/DIGITAL_IO\digital_io.h **** *     while(1) {
 175:C:/Workspaces/DAVE-4.4.2-64Bit/GarbageCollector/XMC4200_GC/Dave/Generated/DIGITAL_IO\digital_io.h **** *
 176:C:/Workspaces/DAVE-4.4.2-64Bit/GarbageCollector/XMC4200_GC/Dave/Generated/DIGITAL_IO\digital_io.h **** *     }
 177:C:/Workspaces/DAVE-4.4.2-64Bit/GarbageCollector/XMC4200_GC/Dave/Generated/DIGITAL_IO\digital_io.h **** *     return (1);
 178:C:/Workspaces/DAVE-4.4.2-64Bit/GarbageCollector/XMC4200_GC/Dave/Generated/DIGITAL_IO\digital_io.h **** *  }
 179:C:/Workspaces/DAVE-4.4.2-64Bit/GarbageCollector/XMC4200_GC/Dave/Generated/DIGITAL_IO\digital_io.h **** * @endcode<BR>
 180:C:/Workspaces/DAVE-4.4.2-64Bit/GarbageCollector/XMC4200_GC/Dave/Generated/DIGITAL_IO\digital_io.h **** */
 181:C:/Workspaces/DAVE-4.4.2-64Bit/GarbageCollector/XMC4200_GC/Dave/Generated/DIGITAL_IO\digital_io.h **** 
 182:C:/Workspaces/DAVE-4.4.2-64Bit/GarbageCollector/XMC4200_GC/Dave/Generated/DIGITAL_IO\digital_io.h **** DAVE_APP_VERSION_t DIGITAL_IO_GetAppVersion(void);
 183:C:/Workspaces/DAVE-4.4.2-64Bit/GarbageCollector/XMC4200_GC/Dave/Generated/DIGITAL_IO\digital_io.h **** 
 184:C:/Workspaces/DAVE-4.4.2-64Bit/GarbageCollector/XMC4200_GC/Dave/Generated/DIGITAL_IO\digital_io.h **** /**
 185:C:/Workspaces/DAVE-4.4.2-64Bit/GarbageCollector/XMC4200_GC/Dave/Generated/DIGITAL_IO\digital_io.h **** *
 186:C:/Workspaces/DAVE-4.4.2-64Bit/GarbageCollector/XMC4200_GC/Dave/Generated/DIGITAL_IO\digital_io.h **** * @brief Function to initialize the port pin as per UI settings.
 187:C:/Workspaces/DAVE-4.4.2-64Bit/GarbageCollector/XMC4200_GC/Dave/Generated/DIGITAL_IO\digital_io.h **** * @param handler Pointer pointing to APP data structure. Refer @ref DIGITAL_IO_t for details.
 188:C:/Workspaces/DAVE-4.4.2-64Bit/GarbageCollector/XMC4200_GC/Dave/Generated/DIGITAL_IO\digital_io.h **** * @return DIGITAL_IO_STATUS_t DIGITAL_IO APP status. Refer @ref DIGITAL_IO_STATUS_t structure for d
 189:C:/Workspaces/DAVE-4.4.2-64Bit/GarbageCollector/XMC4200_GC/Dave/Generated/DIGITAL_IO\digital_io.h **** *
 190:C:/Workspaces/DAVE-4.4.2-64Bit/GarbageCollector/XMC4200_GC/Dave/Generated/DIGITAL_IO\digital_io.h **** * \par<b>Description:</b><br>
 191:C:/Workspaces/DAVE-4.4.2-64Bit/GarbageCollector/XMC4200_GC/Dave/Generated/DIGITAL_IO\digital_io.h **** * This function initializes GPIO port registers IOCR,PDISC,OMR,PDR/PHCR to configure pin direction,
 192:C:/Workspaces/DAVE-4.4.2-64Bit/GarbageCollector/XMC4200_GC/Dave/Generated/DIGITAL_IO\digital_io.h **** * and pad driver strength/hysteresis.
 193:C:/Workspaces/DAVE-4.4.2-64Bit/GarbageCollector/XMC4200_GC/Dave/Generated/DIGITAL_IO\digital_io.h **** *
 194:C:/Workspaces/DAVE-4.4.2-64Bit/GarbageCollector/XMC4200_GC/Dave/Generated/DIGITAL_IO\digital_io.h **** * \par<b>Related APIs:</b><BR>
 195:C:/Workspaces/DAVE-4.4.2-64Bit/GarbageCollector/XMC4200_GC/Dave/Generated/DIGITAL_IO\digital_io.h **** * None
 196:C:/Workspaces/DAVE-4.4.2-64Bit/GarbageCollector/XMC4200_GC/Dave/Generated/DIGITAL_IO\digital_io.h **** *
 197:C:/Workspaces/DAVE-4.4.2-64Bit/GarbageCollector/XMC4200_GC/Dave/Generated/DIGITAL_IO\digital_io.h **** * Example Usage:
 198:C:/Workspaces/DAVE-4.4.2-64Bit/GarbageCollector/XMC4200_GC/Dave/Generated/DIGITAL_IO\digital_io.h **** * @code
 199:C:/Workspaces/DAVE-4.4.2-64Bit/GarbageCollector/XMC4200_GC/Dave/Generated/DIGITAL_IO\digital_io.h **** * #include <DAVE.h>//Declarations from DAVE Code Generation (includes SFR declaration)
 200:C:/Workspaces/DAVE-4.4.2-64Bit/GarbageCollector/XMC4200_GC/Dave/Generated/DIGITAL_IO\digital_io.h **** * int main(void)
 201:C:/Workspaces/DAVE-4.4.2-64Bit/GarbageCollector/XMC4200_GC/Dave/Generated/DIGITAL_IO\digital_io.h **** * {
 202:C:/Workspaces/DAVE-4.4.2-64Bit/GarbageCollector/XMC4200_GC/Dave/Generated/DIGITAL_IO\digital_io.h **** *   DAVE_STATUS_t status;
 203:C:/Workspaces/DAVE-4.4.2-64Bit/GarbageCollector/XMC4200_GC/Dave/Generated/DIGITAL_IO\digital_io.h **** *   status = DAVE_Init();  //(DAVE_STATUS_t)DIGITAL_IO_Init(&DIGITAL_IO_0) is called within DAVE_In
 204:C:/Workspaces/DAVE-4.4.2-64Bit/GarbageCollector/XMC4200_GC/Dave/Generated/DIGITAL_IO\digital_io.h **** *   if(status == DAVE_STATUS_SUCCESS)
 205:C:/Workspaces/DAVE-4.4.2-64Bit/GarbageCollector/XMC4200_GC/Dave/Generated/DIGITAL_IO\digital_io.h **** *   {
 206:C:/Workspaces/DAVE-4.4.2-64Bit/GarbageCollector/XMC4200_GC/Dave/Generated/DIGITAL_IO\digital_io.h **** *     XMC_DEBUG("DAVE Apps initialization success\n");
 207:C:/Workspaces/DAVE-4.4.2-64Bit/GarbageCollector/XMC4200_GC/Dave/Generated/DIGITAL_IO\digital_io.h **** *   }
 208:C:/Workspaces/DAVE-4.4.2-64Bit/GarbageCollector/XMC4200_GC/Dave/Generated/DIGITAL_IO\digital_io.h **** *   else
 209:C:/Workspaces/DAVE-4.4.2-64Bit/GarbageCollector/XMC4200_GC/Dave/Generated/DIGITAL_IO\digital_io.h **** *   {
 210:C:/Workspaces/DAVE-4.4.2-64Bit/GarbageCollector/XMC4200_GC/Dave/Generated/DIGITAL_IO\digital_io.h **** *     XMC_DEBUG(("DAVE Apps initialization failed with status %d\n", status));
 211:C:/Workspaces/DAVE-4.4.2-64Bit/GarbageCollector/XMC4200_GC/Dave/Generated/DIGITAL_IO\digital_io.h **** *     while(1U)
 212:C:/Workspaces/DAVE-4.4.2-64Bit/GarbageCollector/XMC4200_GC/Dave/Generated/DIGITAL_IO\digital_io.h **** *     {
 213:C:/Workspaces/DAVE-4.4.2-64Bit/GarbageCollector/XMC4200_GC/Dave/Generated/DIGITAL_IO\digital_io.h **** *     }
 214:C:/Workspaces/DAVE-4.4.2-64Bit/GarbageCollector/XMC4200_GC/Dave/Generated/DIGITAL_IO\digital_io.h **** *   }
 215:C:/Workspaces/DAVE-4.4.2-64Bit/GarbageCollector/XMC4200_GC/Dave/Generated/DIGITAL_IO\digital_io.h **** *   //Placeholder for user application code. The while loop below can be replaced with user applica
 216:C:/Workspaces/DAVE-4.4.2-64Bit/GarbageCollector/XMC4200_GC/Dave/Generated/DIGITAL_IO\digital_io.h **** *   while(1U)
 217:C:/Workspaces/DAVE-4.4.2-64Bit/GarbageCollector/XMC4200_GC/Dave/Generated/DIGITAL_IO\digital_io.h **** *   {
 218:C:/Workspaces/DAVE-4.4.2-64Bit/GarbageCollector/XMC4200_GC/Dave/Generated/DIGITAL_IO\digital_io.h **** *   }
 219:C:/Workspaces/DAVE-4.4.2-64Bit/GarbageCollector/XMC4200_GC/Dave/Generated/DIGITAL_IO\digital_io.h **** *   return 1U;
 220:C:/Workspaces/DAVE-4.4.2-64Bit/GarbageCollector/XMC4200_GC/Dave/Generated/DIGITAL_IO\digital_io.h **** *  }
 221:C:/Workspaces/DAVE-4.4.2-64Bit/GarbageCollector/XMC4200_GC/Dave/Generated/DIGITAL_IO\digital_io.h **** *  @endcode
 222:C:/Workspaces/DAVE-4.4.2-64Bit/GarbageCollector/XMC4200_GC/Dave/Generated/DIGITAL_IO\digital_io.h **** */
 223:C:/Workspaces/DAVE-4.4.2-64Bit/GarbageCollector/XMC4200_GC/Dave/Generated/DIGITAL_IO\digital_io.h **** 
 224:C:/Workspaces/DAVE-4.4.2-64Bit/GarbageCollector/XMC4200_GC/Dave/Generated/DIGITAL_IO\digital_io.h **** DIGITAL_IO_STATUS_t DIGITAL_IO_Init(const DIGITAL_IO_t *const handler);
 225:C:/Workspaces/DAVE-4.4.2-64Bit/GarbageCollector/XMC4200_GC/Dave/Generated/DIGITAL_IO\digital_io.h **** 
 226:C:/Workspaces/DAVE-4.4.2-64Bit/GarbageCollector/XMC4200_GC/Dave/Generated/DIGITAL_IO\digital_io.h **** /**
 227:C:/Workspaces/DAVE-4.4.2-64Bit/GarbageCollector/XMC4200_GC/Dave/Generated/DIGITAL_IO\digital_io.h **** *
 228:C:/Workspaces/DAVE-4.4.2-64Bit/GarbageCollector/XMC4200_GC/Dave/Generated/DIGITAL_IO\digital_io.h **** * @brief Function to set port pin high.
 229:C:/Workspaces/DAVE-4.4.2-64Bit/GarbageCollector/XMC4200_GC/Dave/Generated/DIGITAL_IO\digital_io.h **** * @param handler Pointer pointing to APP data structure. Refer @ref DIGITAL_IO_t for details.
 230:C:/Workspaces/DAVE-4.4.2-64Bit/GarbageCollector/XMC4200_GC/Dave/Generated/DIGITAL_IO\digital_io.h **** * @return None
 231:C:/Workspaces/DAVE-4.4.2-64Bit/GarbageCollector/XMC4200_GC/Dave/Generated/DIGITAL_IO\digital_io.h **** *
 232:C:/Workspaces/DAVE-4.4.2-64Bit/GarbageCollector/XMC4200_GC/Dave/Generated/DIGITAL_IO\digital_io.h **** * \par<b>Description:</b><br>
 233:C:/Workspaces/DAVE-4.4.2-64Bit/GarbageCollector/XMC4200_GC/Dave/Generated/DIGITAL_IO\digital_io.h **** * This function configures port output modification register Pn_OMR, to make port pin to high level
 234:C:/Workspaces/DAVE-4.4.2-64Bit/GarbageCollector/XMC4200_GC/Dave/Generated/DIGITAL_IO\digital_io.h **** *
 235:C:/Workspaces/DAVE-4.4.2-64Bit/GarbageCollector/XMC4200_GC/Dave/Generated/DIGITAL_IO\digital_io.h **** * \par<b>Related APIs:</b><BR>
 236:C:/Workspaces/DAVE-4.4.2-64Bit/GarbageCollector/XMC4200_GC/Dave/Generated/DIGITAL_IO\digital_io.h **** *  DIGITAL_IO_SetOutputLow()
 237:C:/Workspaces/DAVE-4.4.2-64Bit/GarbageCollector/XMC4200_GC/Dave/Generated/DIGITAL_IO\digital_io.h **** *
 238:C:/Workspaces/DAVE-4.4.2-64Bit/GarbageCollector/XMC4200_GC/Dave/Generated/DIGITAL_IO\digital_io.h **** * Example Usage:
 239:C:/Workspaces/DAVE-4.4.2-64Bit/GarbageCollector/XMC4200_GC/Dave/Generated/DIGITAL_IO\digital_io.h **** * @code
 240:C:/Workspaces/DAVE-4.4.2-64Bit/GarbageCollector/XMC4200_GC/Dave/Generated/DIGITAL_IO\digital_io.h **** * #include <DAVE.h>//Declarations from DAVE Code Generation (includes SFR declaration)
 241:C:/Workspaces/DAVE-4.4.2-64Bit/GarbageCollector/XMC4200_GC/Dave/Generated/DIGITAL_IO\digital_io.h **** * int main(void)
 242:C:/Workspaces/DAVE-4.4.2-64Bit/GarbageCollector/XMC4200_GC/Dave/Generated/DIGITAL_IO\digital_io.h **** * {
 243:C:/Workspaces/DAVE-4.4.2-64Bit/GarbageCollector/XMC4200_GC/Dave/Generated/DIGITAL_IO\digital_io.h **** *   DAVE_STATUS_t status;
 244:C:/Workspaces/DAVE-4.4.2-64Bit/GarbageCollector/XMC4200_GC/Dave/Generated/DIGITAL_IO\digital_io.h **** *   status = DAVE_Init();  //(DAVE_STATUS_t)DIGITAL_IO_Init(&DIGITAL_IO_0) is called within DAVE_In
 245:C:/Workspaces/DAVE-4.4.2-64Bit/GarbageCollector/XMC4200_GC/Dave/Generated/DIGITAL_IO\digital_io.h **** *   if(status == DAVE_STATUS_SUCCESS)
 246:C:/Workspaces/DAVE-4.4.2-64Bit/GarbageCollector/XMC4200_GC/Dave/Generated/DIGITAL_IO\digital_io.h **** *   {
 247:C:/Workspaces/DAVE-4.4.2-64Bit/GarbageCollector/XMC4200_GC/Dave/Generated/DIGITAL_IO\digital_io.h **** *     XMC_DEBUG("DAVE Apps initialization success\n");
 248:C:/Workspaces/DAVE-4.4.2-64Bit/GarbageCollector/XMC4200_GC/Dave/Generated/DIGITAL_IO\digital_io.h **** *   }
 249:C:/Workspaces/DAVE-4.4.2-64Bit/GarbageCollector/XMC4200_GC/Dave/Generated/DIGITAL_IO\digital_io.h **** *   else
 250:C:/Workspaces/DAVE-4.4.2-64Bit/GarbageCollector/XMC4200_GC/Dave/Generated/DIGITAL_IO\digital_io.h **** *   {
 251:C:/Workspaces/DAVE-4.4.2-64Bit/GarbageCollector/XMC4200_GC/Dave/Generated/DIGITAL_IO\digital_io.h **** *     XMC_DEBUG(("DAVE Apps initialization failed with status %d\n", status));
 252:C:/Workspaces/DAVE-4.4.2-64Bit/GarbageCollector/XMC4200_GC/Dave/Generated/DIGITAL_IO\digital_io.h **** *     while(1U)
 253:C:/Workspaces/DAVE-4.4.2-64Bit/GarbageCollector/XMC4200_GC/Dave/Generated/DIGITAL_IO\digital_io.h **** *     {
 254:C:/Workspaces/DAVE-4.4.2-64Bit/GarbageCollector/XMC4200_GC/Dave/Generated/DIGITAL_IO\digital_io.h **** *     }
 255:C:/Workspaces/DAVE-4.4.2-64Bit/GarbageCollector/XMC4200_GC/Dave/Generated/DIGITAL_IO\digital_io.h **** *   }
 256:C:/Workspaces/DAVE-4.4.2-64Bit/GarbageCollector/XMC4200_GC/Dave/Generated/DIGITAL_IO\digital_io.h **** *   //Placeholder for user application code. The while loop below can be replaced with user applica
 257:C:/Workspaces/DAVE-4.4.2-64Bit/GarbageCollector/XMC4200_GC/Dave/Generated/DIGITAL_IO\digital_io.h **** *   DIGITAL_IO_SetOutputHigh(&DIGITAL_IO_0);
 258:C:/Workspaces/DAVE-4.4.2-64Bit/GarbageCollector/XMC4200_GC/Dave/Generated/DIGITAL_IO\digital_io.h **** *   while(1U)
 259:C:/Workspaces/DAVE-4.4.2-64Bit/GarbageCollector/XMC4200_GC/Dave/Generated/DIGITAL_IO\digital_io.h **** *   {
 260:C:/Workspaces/DAVE-4.4.2-64Bit/GarbageCollector/XMC4200_GC/Dave/Generated/DIGITAL_IO\digital_io.h **** *     // Add application code here
 261:C:/Workspaces/DAVE-4.4.2-64Bit/GarbageCollector/XMC4200_GC/Dave/Generated/DIGITAL_IO\digital_io.h **** *   }
 262:C:/Workspaces/DAVE-4.4.2-64Bit/GarbageCollector/XMC4200_GC/Dave/Generated/DIGITAL_IO\digital_io.h **** *
 263:C:/Workspaces/DAVE-4.4.2-64Bit/GarbageCollector/XMC4200_GC/Dave/Generated/DIGITAL_IO\digital_io.h **** *   return (1);
 264:C:/Workspaces/DAVE-4.4.2-64Bit/GarbageCollector/XMC4200_GC/Dave/Generated/DIGITAL_IO\digital_io.h **** * }
 265:C:/Workspaces/DAVE-4.4.2-64Bit/GarbageCollector/XMC4200_GC/Dave/Generated/DIGITAL_IO\digital_io.h **** *  @endcode
 266:C:/Workspaces/DAVE-4.4.2-64Bit/GarbageCollector/XMC4200_GC/Dave/Generated/DIGITAL_IO\digital_io.h **** */
 267:C:/Workspaces/DAVE-4.4.2-64Bit/GarbageCollector/XMC4200_GC/Dave/Generated/DIGITAL_IO\digital_io.h **** 
 268:C:/Workspaces/DAVE-4.4.2-64Bit/GarbageCollector/XMC4200_GC/Dave/Generated/DIGITAL_IO\digital_io.h **** __STATIC_INLINE void DIGITAL_IO_SetOutputHigh(const DIGITAL_IO_t *const handler)
 269:C:/Workspaces/DAVE-4.4.2-64Bit/GarbageCollector/XMC4200_GC/Dave/Generated/DIGITAL_IO\digital_io.h **** {
 170              	 .loc 2 269 0
 171              	 .cfi_startproc
 172              	 
 173              	 
 174 0000 80B5     	 push {r7,lr}
 175              	.LCFI18:
 176              	 .cfi_def_cfa_offset 8
 177              	 .cfi_offset 7,-8
 178              	 .cfi_offset 14,-4
 179 0002 82B0     	 sub sp,sp,#8
 180              	.LCFI19:
 181              	 .cfi_def_cfa_offset 16
 182 0004 00AF     	 add r7,sp,#0
 183              	.LCFI20:
 184              	 .cfi_def_cfa_register 7
 185 0006 7860     	 str r0,[r7,#4]
 270:C:/Workspaces/DAVE-4.4.2-64Bit/GarbageCollector/XMC4200_GC/Dave/Generated/DIGITAL_IO\digital_io.h ****   XMC_ASSERT("DIGITAL_IO_SetOutputHigh: handler null pointer", handler != NULL);
 271:C:/Workspaces/DAVE-4.4.2-64Bit/GarbageCollector/XMC4200_GC/Dave/Generated/DIGITAL_IO\digital_io.h ****   XMC_GPIO_SetOutputHigh(handler->gpio_port, handler->gpio_pin);
 186              	 .loc 2 271 0
 187 0008 7B68     	 ldr r3,[r7,#4]
 188 000a 1A68     	 ldr r2,[r3]
 189 000c 7B68     	 ldr r3,[r7,#4]
 190 000e 1B7C     	 ldrb r3,[r3,#16]
 191 0010 1046     	 mov r0,r2
 192 0012 1946     	 mov r1,r3
 193 0014 FFF7FEFF 	 bl XMC_GPIO_SetOutputHigh
 272:C:/Workspaces/DAVE-4.4.2-64Bit/GarbageCollector/XMC4200_GC/Dave/Generated/DIGITAL_IO\digital_io.h **** }
 194              	 .loc 2 272 0
 195 0018 0837     	 adds r7,r7,#8
 196              	.LCFI21:
 197              	 .cfi_def_cfa_offset 8
 198 001a BD46     	 mov sp,r7
 199              	.LCFI22:
 200              	 .cfi_def_cfa_register 13
 201              	 
 202 001c 80BD     	 pop {r7,pc}
 203              	 .cfi_endproc
 204              	.LFE147:
 206 001e 00BF     	 .section .text.DIGITAL_IO_SetOutputLow,"ax",%progbits
 207              	 .align 2
 208              	 .thumb
 209              	 .thumb_func
 211              	DIGITAL_IO_SetOutputLow:
 212              	.LFB148:
 273:C:/Workspaces/DAVE-4.4.2-64Bit/GarbageCollector/XMC4200_GC/Dave/Generated/DIGITAL_IO\digital_io.h **** 
 274:C:/Workspaces/DAVE-4.4.2-64Bit/GarbageCollector/XMC4200_GC/Dave/Generated/DIGITAL_IO\digital_io.h **** /**
 275:C:/Workspaces/DAVE-4.4.2-64Bit/GarbageCollector/XMC4200_GC/Dave/Generated/DIGITAL_IO\digital_io.h **** * @brief Function to reset port pin.
 276:C:/Workspaces/DAVE-4.4.2-64Bit/GarbageCollector/XMC4200_GC/Dave/Generated/DIGITAL_IO\digital_io.h **** * @param handler Pointer pointing to APP data structure. Refer @ref DIGITAL_IO_t for details.
 277:C:/Workspaces/DAVE-4.4.2-64Bit/GarbageCollector/XMC4200_GC/Dave/Generated/DIGITAL_IO\digital_io.h **** * @return None
 278:C:/Workspaces/DAVE-4.4.2-64Bit/GarbageCollector/XMC4200_GC/Dave/Generated/DIGITAL_IO\digital_io.h **** *
 279:C:/Workspaces/DAVE-4.4.2-64Bit/GarbageCollector/XMC4200_GC/Dave/Generated/DIGITAL_IO\digital_io.h **** * \par<b>Description:</b><br>
 280:C:/Workspaces/DAVE-4.4.2-64Bit/GarbageCollector/XMC4200_GC/Dave/Generated/DIGITAL_IO\digital_io.h **** * This function configures port output modification register Pn_OMR, to make port pin to low level.
 281:C:/Workspaces/DAVE-4.4.2-64Bit/GarbageCollector/XMC4200_GC/Dave/Generated/DIGITAL_IO\digital_io.h **** *
 282:C:/Workspaces/DAVE-4.4.2-64Bit/GarbageCollector/XMC4200_GC/Dave/Generated/DIGITAL_IO\digital_io.h **** * \par<b>Related APIs:</b><BR>
 283:C:/Workspaces/DAVE-4.4.2-64Bit/GarbageCollector/XMC4200_GC/Dave/Generated/DIGITAL_IO\digital_io.h **** * DIGITAL_IO_SetOutputHigh()
 284:C:/Workspaces/DAVE-4.4.2-64Bit/GarbageCollector/XMC4200_GC/Dave/Generated/DIGITAL_IO\digital_io.h **** *
 285:C:/Workspaces/DAVE-4.4.2-64Bit/GarbageCollector/XMC4200_GC/Dave/Generated/DIGITAL_IO\digital_io.h **** * Example Usage:
 286:C:/Workspaces/DAVE-4.4.2-64Bit/GarbageCollector/XMC4200_GC/Dave/Generated/DIGITAL_IO\digital_io.h **** * @code
 287:C:/Workspaces/DAVE-4.4.2-64Bit/GarbageCollector/XMC4200_GC/Dave/Generated/DIGITAL_IO\digital_io.h **** *  #include <DAVE.h>//Declarations from DAVE Code Generation (includes SFR declaration)
 288:C:/Workspaces/DAVE-4.4.2-64Bit/GarbageCollector/XMC4200_GC/Dave/Generated/DIGITAL_IO\digital_io.h **** *  int main(void)
 289:C:/Workspaces/DAVE-4.4.2-64Bit/GarbageCollector/XMC4200_GC/Dave/Generated/DIGITAL_IO\digital_io.h **** *  {
 290:C:/Workspaces/DAVE-4.4.2-64Bit/GarbageCollector/XMC4200_GC/Dave/Generated/DIGITAL_IO\digital_io.h **** *    DAVE_STATUS_t status;
 291:C:/Workspaces/DAVE-4.4.2-64Bit/GarbageCollector/XMC4200_GC/Dave/Generated/DIGITAL_IO\digital_io.h **** *    status = DAVE_Init();  //(DAVE_STATUS_t)DIGITAL_IO_Init(&DIGITAL_IO_0) is called within DAVE_I
 292:C:/Workspaces/DAVE-4.4.2-64Bit/GarbageCollector/XMC4200_GC/Dave/Generated/DIGITAL_IO\digital_io.h **** *    if(status == DAVE_STATUS_SUCCESS)
 293:C:/Workspaces/DAVE-4.4.2-64Bit/GarbageCollector/XMC4200_GC/Dave/Generated/DIGITAL_IO\digital_io.h **** *    {
 294:C:/Workspaces/DAVE-4.4.2-64Bit/GarbageCollector/XMC4200_GC/Dave/Generated/DIGITAL_IO\digital_io.h **** *      XMC_DEBUG("DAVE Apps initialization success\n");
 295:C:/Workspaces/DAVE-4.4.2-64Bit/GarbageCollector/XMC4200_GC/Dave/Generated/DIGITAL_IO\digital_io.h **** *    }
 296:C:/Workspaces/DAVE-4.4.2-64Bit/GarbageCollector/XMC4200_GC/Dave/Generated/DIGITAL_IO\digital_io.h **** *    else
 297:C:/Workspaces/DAVE-4.4.2-64Bit/GarbageCollector/XMC4200_GC/Dave/Generated/DIGITAL_IO\digital_io.h **** *    {
 298:C:/Workspaces/DAVE-4.4.2-64Bit/GarbageCollector/XMC4200_GC/Dave/Generated/DIGITAL_IO\digital_io.h **** *      XMC_DEBUG(("DAVE Apps initialization failed with status %d\n", status));
 299:C:/Workspaces/DAVE-4.4.2-64Bit/GarbageCollector/XMC4200_GC/Dave/Generated/DIGITAL_IO\digital_io.h **** *      while(1U)
 300:C:/Workspaces/DAVE-4.4.2-64Bit/GarbageCollector/XMC4200_GC/Dave/Generated/DIGITAL_IO\digital_io.h **** *      {
 301:C:/Workspaces/DAVE-4.4.2-64Bit/GarbageCollector/XMC4200_GC/Dave/Generated/DIGITAL_IO\digital_io.h **** *      }
 302:C:/Workspaces/DAVE-4.4.2-64Bit/GarbageCollector/XMC4200_GC/Dave/Generated/DIGITAL_IO\digital_io.h **** *    }
 303:C:/Workspaces/DAVE-4.4.2-64Bit/GarbageCollector/XMC4200_GC/Dave/Generated/DIGITAL_IO\digital_io.h **** *    //Placeholder for user application code. The while loop below can be replaced with user applic
 304:C:/Workspaces/DAVE-4.4.2-64Bit/GarbageCollector/XMC4200_GC/Dave/Generated/DIGITAL_IO\digital_io.h **** *    DIGITAL_IO_SetOutputLow(&DIGITAL_IO_0);
 305:C:/Workspaces/DAVE-4.4.2-64Bit/GarbageCollector/XMC4200_GC/Dave/Generated/DIGITAL_IO\digital_io.h **** *    while(1U)
 306:C:/Workspaces/DAVE-4.4.2-64Bit/GarbageCollector/XMC4200_GC/Dave/Generated/DIGITAL_IO\digital_io.h **** *    {
 307:C:/Workspaces/DAVE-4.4.2-64Bit/GarbageCollector/XMC4200_GC/Dave/Generated/DIGITAL_IO\digital_io.h **** *      // Add application code here
 308:C:/Workspaces/DAVE-4.4.2-64Bit/GarbageCollector/XMC4200_GC/Dave/Generated/DIGITAL_IO\digital_io.h **** *    }
 309:C:/Workspaces/DAVE-4.4.2-64Bit/GarbageCollector/XMC4200_GC/Dave/Generated/DIGITAL_IO\digital_io.h **** *
 310:C:/Workspaces/DAVE-4.4.2-64Bit/GarbageCollector/XMC4200_GC/Dave/Generated/DIGITAL_IO\digital_io.h **** *   return (1);
 311:C:/Workspaces/DAVE-4.4.2-64Bit/GarbageCollector/XMC4200_GC/Dave/Generated/DIGITAL_IO\digital_io.h **** * }
 312:C:/Workspaces/DAVE-4.4.2-64Bit/GarbageCollector/XMC4200_GC/Dave/Generated/DIGITAL_IO\digital_io.h **** *  @endcode
 313:C:/Workspaces/DAVE-4.4.2-64Bit/GarbageCollector/XMC4200_GC/Dave/Generated/DIGITAL_IO\digital_io.h **** */
 314:C:/Workspaces/DAVE-4.4.2-64Bit/GarbageCollector/XMC4200_GC/Dave/Generated/DIGITAL_IO\digital_io.h **** 
 315:C:/Workspaces/DAVE-4.4.2-64Bit/GarbageCollector/XMC4200_GC/Dave/Generated/DIGITAL_IO\digital_io.h **** __STATIC_INLINE void DIGITAL_IO_SetOutputLow(const DIGITAL_IO_t *const handler)
 316:C:/Workspaces/DAVE-4.4.2-64Bit/GarbageCollector/XMC4200_GC/Dave/Generated/DIGITAL_IO\digital_io.h **** {
 213              	 .loc 2 316 0
 214              	 .cfi_startproc
 215              	 
 216              	 
 217 0000 80B5     	 push {r7,lr}
 218              	.LCFI23:
 219              	 .cfi_def_cfa_offset 8
 220              	 .cfi_offset 7,-8
 221              	 .cfi_offset 14,-4
 222 0002 82B0     	 sub sp,sp,#8
 223              	.LCFI24:
 224              	 .cfi_def_cfa_offset 16
 225 0004 00AF     	 add r7,sp,#0
 226              	.LCFI25:
 227              	 .cfi_def_cfa_register 7
 228 0006 7860     	 str r0,[r7,#4]
 317:C:/Workspaces/DAVE-4.4.2-64Bit/GarbageCollector/XMC4200_GC/Dave/Generated/DIGITAL_IO\digital_io.h ****   XMC_ASSERT("DIGITAL_IO_SetOutputLow: handler null pointer", handler != NULL);
 318:C:/Workspaces/DAVE-4.4.2-64Bit/GarbageCollector/XMC4200_GC/Dave/Generated/DIGITAL_IO\digital_io.h ****   XMC_GPIO_SetOutputLow(handler->gpio_port,handler->gpio_pin);
 229              	 .loc 2 318 0
 230 0008 7B68     	 ldr r3,[r7,#4]
 231 000a 1A68     	 ldr r2,[r3]
 232 000c 7B68     	 ldr r3,[r7,#4]
 233 000e 1B7C     	 ldrb r3,[r3,#16]
 234 0010 1046     	 mov r0,r2
 235 0012 1946     	 mov r1,r3
 236 0014 FFF7FEFF 	 bl XMC_GPIO_SetOutputLow
 319:C:/Workspaces/DAVE-4.4.2-64Bit/GarbageCollector/XMC4200_GC/Dave/Generated/DIGITAL_IO\digital_io.h **** }
 237              	 .loc 2 319 0
 238 0018 0837     	 adds r7,r7,#8
 239              	.LCFI26:
 240              	 .cfi_def_cfa_offset 8
 241 001a BD46     	 mov sp,r7
 242              	.LCFI27:
 243              	 .cfi_def_cfa_register 13
 244              	 
 245 001c 80BD     	 pop {r7,pc}
 246              	 .cfi_endproc
 247              	.LFE148:
 249 001e 00BF     	 .section .text.PIN_INTERRUPT_GetPinValue,"ax",%progbits
 250              	 .align 2
 251              	 .thumb
 252              	 .thumb_func
 254              	PIN_INTERRUPT_GetPinValue:
 255              	.LFB303:
 256              	 .file 3 "C:/Workspaces/DAVE-4.4.2-64Bit/GarbageCollector/XMC4200_GC/Dave/Generated/PIN_INTERRUPT/pin_interrupt.h"
   1:C:/Workspaces/DAVE-4.4.2-64Bit/GarbageCollector/XMC4200_GC/Dave/Generated/PIN_INTERRUPT\pin_interrupt.h **** /**
   2:C:/Workspaces/DAVE-4.4.2-64Bit/GarbageCollector/XMC4200_GC/Dave/Generated/PIN_INTERRUPT\pin_interrupt.h ****  * @file pin_interrupt.h
   3:C:/Workspaces/DAVE-4.4.2-64Bit/GarbageCollector/XMC4200_GC/Dave/Generated/PIN_INTERRUPT\pin_interrupt.h ****  * @date 2016-03-02
   4:C:/Workspaces/DAVE-4.4.2-64Bit/GarbageCollector/XMC4200_GC/Dave/Generated/PIN_INTERRUPT\pin_interrupt.h ****  *
   5:C:/Workspaces/DAVE-4.4.2-64Bit/GarbageCollector/XMC4200_GC/Dave/Generated/PIN_INTERRUPT\pin_interrupt.h ****  * NOTE:
   6:C:/Workspaces/DAVE-4.4.2-64Bit/GarbageCollector/XMC4200_GC/Dave/Generated/PIN_INTERRUPT\pin_interrupt.h ****  * This file is generated by DAVE. Any manual modification done to this file will be lost when the 
   7:C:/Workspaces/DAVE-4.4.2-64Bit/GarbageCollector/XMC4200_GC/Dave/Generated/PIN_INTERRUPT\pin_interrupt.h ****  *
   8:C:/Workspaces/DAVE-4.4.2-64Bit/GarbageCollector/XMC4200_GC/Dave/Generated/PIN_INTERRUPT\pin_interrupt.h ****  * @cond
   9:C:/Workspaces/DAVE-4.4.2-64Bit/GarbageCollector/XMC4200_GC/Dave/Generated/PIN_INTERRUPT\pin_interrupt.h ****  **************************************************************************************************
  10:C:/Workspaces/DAVE-4.4.2-64Bit/GarbageCollector/XMC4200_GC/Dave/Generated/PIN_INTERRUPT\pin_interrupt.h ****  * PIN_INTERRUPT v4.0.2 - The PIN_INTERRUPT APP invokes user interrupt handler in a response to ris
  11:C:/Workspaces/DAVE-4.4.2-64Bit/GarbageCollector/XMC4200_GC/Dave/Generated/PIN_INTERRUPT\pin_interrupt.h ****  *                        edge event signal on a pin.
  12:C:/Workspaces/DAVE-4.4.2-64Bit/GarbageCollector/XMC4200_GC/Dave/Generated/PIN_INTERRUPT\pin_interrupt.h ****  *
  13:C:/Workspaces/DAVE-4.4.2-64Bit/GarbageCollector/XMC4200_GC/Dave/Generated/PIN_INTERRUPT\pin_interrupt.h ****  * Copyright (c) 2016, Infineon Technologies AG
  14:C:/Workspaces/DAVE-4.4.2-64Bit/GarbageCollector/XMC4200_GC/Dave/Generated/PIN_INTERRUPT\pin_interrupt.h ****  * All rights reserved.                        
  15:C:/Workspaces/DAVE-4.4.2-64Bit/GarbageCollector/XMC4200_GC/Dave/Generated/PIN_INTERRUPT\pin_interrupt.h ****  *                                             
  16:C:/Workspaces/DAVE-4.4.2-64Bit/GarbageCollector/XMC4200_GC/Dave/Generated/PIN_INTERRUPT\pin_interrupt.h ****  * Redistribution and use in source and binary forms, with or without modification,are permitted pr
  17:C:/Workspaces/DAVE-4.4.2-64Bit/GarbageCollector/XMC4200_GC/Dave/Generated/PIN_INTERRUPT\pin_interrupt.h ****  * following conditions are met:   
  18:C:/Workspaces/DAVE-4.4.2-64Bit/GarbageCollector/XMC4200_GC/Dave/Generated/PIN_INTERRUPT\pin_interrupt.h ****  *                                                                              
  19:C:/Workspaces/DAVE-4.4.2-64Bit/GarbageCollector/XMC4200_GC/Dave/Generated/PIN_INTERRUPT\pin_interrupt.h ****  *   Redistributions of source code must retain the above copyright notice, this list of conditions
  20:C:/Workspaces/DAVE-4.4.2-64Bit/GarbageCollector/XMC4200_GC/Dave/Generated/PIN_INTERRUPT\pin_interrupt.h ****  *   disclaimer.                        
  21:C:/Workspaces/DAVE-4.4.2-64Bit/GarbageCollector/XMC4200_GC/Dave/Generated/PIN_INTERRUPT\pin_interrupt.h ****  * 
  22:C:/Workspaces/DAVE-4.4.2-64Bit/GarbageCollector/XMC4200_GC/Dave/Generated/PIN_INTERRUPT\pin_interrupt.h ****  *   Redistributions in binary form must reproduce the above copyright notice, this list of conditi
  23:C:/Workspaces/DAVE-4.4.2-64Bit/GarbageCollector/XMC4200_GC/Dave/Generated/PIN_INTERRUPT\pin_interrupt.h ****  *   disclaimer in the documentation and/or other materials provided with the distribution.     
  24:C:/Workspaces/DAVE-4.4.2-64Bit/GarbageCollector/XMC4200_GC/Dave/Generated/PIN_INTERRUPT\pin_interrupt.h ****  *                         
  25:C:/Workspaces/DAVE-4.4.2-64Bit/GarbageCollector/XMC4200_GC/Dave/Generated/PIN_INTERRUPT\pin_interrupt.h ****  *   Neither the name of the copyright holders nor the names of its contributors may be used to end
  26:C:/Workspaces/DAVE-4.4.2-64Bit/GarbageCollector/XMC4200_GC/Dave/Generated/PIN_INTERRUPT\pin_interrupt.h ****  *   products derived from this software without specific prior written permission. 
  27:C:/Workspaces/DAVE-4.4.2-64Bit/GarbageCollector/XMC4200_GC/Dave/Generated/PIN_INTERRUPT\pin_interrupt.h ****  *                                             
  28:C:/Workspaces/DAVE-4.4.2-64Bit/GarbageCollector/XMC4200_GC/Dave/Generated/PIN_INTERRUPT\pin_interrupt.h ****  * THIS SOFTWARE IS PROVIDED BY THE COPYRIGHT HOLDERS AND CONTRIBUTORS "AS IS" AND ANY EXPRESS OR I
  29:C:/Workspaces/DAVE-4.4.2-64Bit/GarbageCollector/XMC4200_GC/Dave/Generated/PIN_INTERRUPT\pin_interrupt.h ****  * INCLUDING, BUT NOT LIMITED TO, THE IMPLIED WARRANTIES OF MERCHANTABILITY AND FITNESS FOR A PARTI
  30:C:/Workspaces/DAVE-4.4.2-64Bit/GarbageCollector/XMC4200_GC/Dave/Generated/PIN_INTERRUPT\pin_interrupt.h ****  * DISCLAIMED. IN NO EVENT SHALL THE COPYRIGHT HOLDER OR CONTRIBUTORS BE LIABLE  FOR ANY DIRECT, IN
  31:C:/Workspaces/DAVE-4.4.2-64Bit/GarbageCollector/XMC4200_GC/Dave/Generated/PIN_INTERRUPT\pin_interrupt.h ****  * SPECIAL, EXEMPLARY, OR CONSEQUENTIAL DAMAGES (INCLUDING, BUT NOT LIMITED TO, PROCUREMENT OF SUBS
  32:C:/Workspaces/DAVE-4.4.2-64Bit/GarbageCollector/XMC4200_GC/Dave/Generated/PIN_INTERRUPT\pin_interrupt.h ****  * SERVICES; LOSS OF USE, DATA, OR PROFITS; OR BUSINESS INTERRUPTION) HOWEVER CAUSED AND ON ANY THE
  33:C:/Workspaces/DAVE-4.4.2-64Bit/GarbageCollector/XMC4200_GC/Dave/Generated/PIN_INTERRUPT\pin_interrupt.h ****  * WHETHER IN CONTRACT, STRICT LIABILITY,OR TORT (INCLUDING NEGLIGENCE OR OTHERWISE) ARISING IN ANY
  34:C:/Workspaces/DAVE-4.4.2-64Bit/GarbageCollector/XMC4200_GC/Dave/Generated/PIN_INTERRUPT\pin_interrupt.h ****  * USE OF THIS SOFTWARE, EVEN IF ADVISED OF THE POSSIBILITY OF SUCH DAMAGE.    
  35:C:/Workspaces/DAVE-4.4.2-64Bit/GarbageCollector/XMC4200_GC/Dave/Generated/PIN_INTERRUPT\pin_interrupt.h ****  *                                                                              
  36:C:/Workspaces/DAVE-4.4.2-64Bit/GarbageCollector/XMC4200_GC/Dave/Generated/PIN_INTERRUPT\pin_interrupt.h ****  * To improve the quality of the software, users are encouraged to share modifications, enhancement
  37:C:/Workspaces/DAVE-4.4.2-64Bit/GarbageCollector/XMC4200_GC/Dave/Generated/PIN_INTERRUPT\pin_interrupt.h ****  * with Infineon Technologies AG (dave@infineon.com).         
  38:C:/Workspaces/DAVE-4.4.2-64Bit/GarbageCollector/XMC4200_GC/Dave/Generated/PIN_INTERRUPT\pin_interrupt.h ****  **************************************************************************************************
  39:C:/Workspaces/DAVE-4.4.2-64Bit/GarbageCollector/XMC4200_GC/Dave/Generated/PIN_INTERRUPT\pin_interrupt.h ****  *
  40:C:/Workspaces/DAVE-4.4.2-64Bit/GarbageCollector/XMC4200_GC/Dave/Generated/PIN_INTERRUPT\pin_interrupt.h ****  * Change History
  41:C:/Workspaces/DAVE-4.4.2-64Bit/GarbageCollector/XMC4200_GC/Dave/Generated/PIN_INTERRUPT\pin_interrupt.h ****  * --------------
  42:C:/Workspaces/DAVE-4.4.2-64Bit/GarbageCollector/XMC4200_GC/Dave/Generated/PIN_INTERRUPT\pin_interrupt.h ****  * 2015-12-03:
  43:C:/Workspaces/DAVE-4.4.2-64Bit/GarbageCollector/XMC4200_GC/Dave/Generated/PIN_INTERRUPT\pin_interrupt.h ****  *     - Initial version for DAVEv4. <BR>
  44:C:/Workspaces/DAVE-4.4.2-64Bit/GarbageCollector/XMC4200_GC/Dave/Generated/PIN_INTERRUPT\pin_interrupt.h ****  * @endcond 
  45:C:/Workspaces/DAVE-4.4.2-64Bit/GarbageCollector/XMC4200_GC/Dave/Generated/PIN_INTERRUPT\pin_interrupt.h ****  *
  46:C:/Workspaces/DAVE-4.4.2-64Bit/GarbageCollector/XMC4200_GC/Dave/Generated/PIN_INTERRUPT\pin_interrupt.h ****  */
  47:C:/Workspaces/DAVE-4.4.2-64Bit/GarbageCollector/XMC4200_GC/Dave/Generated/PIN_INTERRUPT\pin_interrupt.h **** 
  48:C:/Workspaces/DAVE-4.4.2-64Bit/GarbageCollector/XMC4200_GC/Dave/Generated/PIN_INTERRUPT\pin_interrupt.h **** #ifndef PIN_INTERRUPT_H
  49:C:/Workspaces/DAVE-4.4.2-64Bit/GarbageCollector/XMC4200_GC/Dave/Generated/PIN_INTERRUPT\pin_interrupt.h **** #define PIN_INTERRUPT_H
  50:C:/Workspaces/DAVE-4.4.2-64Bit/GarbageCollector/XMC4200_GC/Dave/Generated/PIN_INTERRUPT\pin_interrupt.h **** 
  51:C:/Workspaces/DAVE-4.4.2-64Bit/GarbageCollector/XMC4200_GC/Dave/Generated/PIN_INTERRUPT\pin_interrupt.h **** /**************************************************************************************************
  52:C:/Workspaces/DAVE-4.4.2-64Bit/GarbageCollector/XMC4200_GC/Dave/Generated/PIN_INTERRUPT\pin_interrupt.h ****  * HEADER FILES                                                                                    
  53:C:/Workspaces/DAVE-4.4.2-64Bit/GarbageCollector/XMC4200_GC/Dave/Generated/PIN_INTERRUPT\pin_interrupt.h ****  **************************************************************************************************
  54:C:/Workspaces/DAVE-4.4.2-64Bit/GarbageCollector/XMC4200_GC/Dave/Generated/PIN_INTERRUPT\pin_interrupt.h **** #if (UC_SERIES == XMC14)
  55:C:/Workspaces/DAVE-4.4.2-64Bit/GarbageCollector/XMC4200_GC/Dave/Generated/PIN_INTERRUPT\pin_interrupt.h **** #include <xmc_scu.h>
  56:C:/Workspaces/DAVE-4.4.2-64Bit/GarbageCollector/XMC4200_GC/Dave/Generated/PIN_INTERRUPT\pin_interrupt.h **** #endif
  57:C:/Workspaces/DAVE-4.4.2-64Bit/GarbageCollector/XMC4200_GC/Dave/Generated/PIN_INTERRUPT\pin_interrupt.h **** #include <xmc_gpio.h>
  58:C:/Workspaces/DAVE-4.4.2-64Bit/GarbageCollector/XMC4200_GC/Dave/Generated/PIN_INTERRUPT\pin_interrupt.h **** #include <xmc_eru.h>
  59:C:/Workspaces/DAVE-4.4.2-64Bit/GarbageCollector/XMC4200_GC/Dave/Generated/PIN_INTERRUPT\pin_interrupt.h **** #include <DAVE_Common.h>
  60:C:/Workspaces/DAVE-4.4.2-64Bit/GarbageCollector/XMC4200_GC/Dave/Generated/PIN_INTERRUPT\pin_interrupt.h **** #include "pin_interrupt_conf.h"
  61:C:/Workspaces/DAVE-4.4.2-64Bit/GarbageCollector/XMC4200_GC/Dave/Generated/PIN_INTERRUPT\pin_interrupt.h ****  /*************************************************************************************************
  62:C:/Workspaces/DAVE-4.4.2-64Bit/GarbageCollector/XMC4200_GC/Dave/Generated/PIN_INTERRUPT\pin_interrupt.h ****  * MACROS                                                                                          
  63:C:/Workspaces/DAVE-4.4.2-64Bit/GarbageCollector/XMC4200_GC/Dave/Generated/PIN_INTERRUPT\pin_interrupt.h ****  **************************************************************************************************
  64:C:/Workspaces/DAVE-4.4.2-64Bit/GarbageCollector/XMC4200_GC/Dave/Generated/PIN_INTERRUPT\pin_interrupt.h **** #if (!((XMC_LIB_MAJOR_VERSION == 2U) && \
  65:C:/Workspaces/DAVE-4.4.2-64Bit/GarbageCollector/XMC4200_GC/Dave/Generated/PIN_INTERRUPT\pin_interrupt.h ****       (XMC_LIB_MINOR_VERSION >= 1U) && \
  66:C:/Workspaces/DAVE-4.4.2-64Bit/GarbageCollector/XMC4200_GC/Dave/Generated/PIN_INTERRUPT\pin_interrupt.h ****       (XMC_LIB_PATCH_VERSION >= 6U)))
  67:C:/Workspaces/DAVE-4.4.2-64Bit/GarbageCollector/XMC4200_GC/Dave/Generated/PIN_INTERRUPT\pin_interrupt.h **** #error "PIN_INTERRUPT requires XMC Peripheral Library v2.1.6 or higher"
  68:C:/Workspaces/DAVE-4.4.2-64Bit/GarbageCollector/XMC4200_GC/Dave/Generated/PIN_INTERRUPT\pin_interrupt.h **** #endif
  69:C:/Workspaces/DAVE-4.4.2-64Bit/GarbageCollector/XMC4200_GC/Dave/Generated/PIN_INTERRUPT\pin_interrupt.h **** 
  70:C:/Workspaces/DAVE-4.4.2-64Bit/GarbageCollector/XMC4200_GC/Dave/Generated/PIN_INTERRUPT\pin_interrupt.h **** /**
  71:C:/Workspaces/DAVE-4.4.2-64Bit/GarbageCollector/XMC4200_GC/Dave/Generated/PIN_INTERRUPT\pin_interrupt.h ****  * @ingroup App_publicparam
  72:C:/Workspaces/DAVE-4.4.2-64Bit/GarbageCollector/XMC4200_GC/Dave/Generated/PIN_INTERRUPT\pin_interrupt.h ****  * @{
  73:C:/Workspaces/DAVE-4.4.2-64Bit/GarbageCollector/XMC4200_GC/Dave/Generated/PIN_INTERRUPT\pin_interrupt.h ****  */
  74:C:/Workspaces/DAVE-4.4.2-64Bit/GarbageCollector/XMC4200_GC/Dave/Generated/PIN_INTERRUPT\pin_interrupt.h **** /**
  75:C:/Workspaces/DAVE-4.4.2-64Bit/GarbageCollector/XMC4200_GC/Dave/Generated/PIN_INTERRUPT\pin_interrupt.h ****  *  @brief Initialization data structure for PIN_INTERRUPT APP
  76:C:/Workspaces/DAVE-4.4.2-64Bit/GarbageCollector/XMC4200_GC/Dave/Generated/PIN_INTERRUPT\pin_interrupt.h ****  */
  77:C:/Workspaces/DAVE-4.4.2-64Bit/GarbageCollector/XMC4200_GC/Dave/Generated/PIN_INTERRUPT\pin_interrupt.h **** 
  78:C:/Workspaces/DAVE-4.4.2-64Bit/GarbageCollector/XMC4200_GC/Dave/Generated/PIN_INTERRUPT\pin_interrupt.h **** /**
  79:C:/Workspaces/DAVE-4.4.2-64Bit/GarbageCollector/XMC4200_GC/Dave/Generated/PIN_INTERRUPT\pin_interrupt.h ****  * @}
  80:C:/Workspaces/DAVE-4.4.2-64Bit/GarbageCollector/XMC4200_GC/Dave/Generated/PIN_INTERRUPT\pin_interrupt.h ****  */
  81:C:/Workspaces/DAVE-4.4.2-64Bit/GarbageCollector/XMC4200_GC/Dave/Generated/PIN_INTERRUPT\pin_interrupt.h **** 
  82:C:/Workspaces/DAVE-4.4.2-64Bit/GarbageCollector/XMC4200_GC/Dave/Generated/PIN_INTERRUPT\pin_interrupt.h ****  /*************************************************************************************************
  83:C:/Workspaces/DAVE-4.4.2-64Bit/GarbageCollector/XMC4200_GC/Dave/Generated/PIN_INTERRUPT\pin_interrupt.h ****  * ENUMS
  84:C:/Workspaces/DAVE-4.4.2-64Bit/GarbageCollector/XMC4200_GC/Dave/Generated/PIN_INTERRUPT\pin_interrupt.h ****  **************************************************************************************************
  85:C:/Workspaces/DAVE-4.4.2-64Bit/GarbageCollector/XMC4200_GC/Dave/Generated/PIN_INTERRUPT\pin_interrupt.h **** /**
  86:C:/Workspaces/DAVE-4.4.2-64Bit/GarbageCollector/XMC4200_GC/Dave/Generated/PIN_INTERRUPT\pin_interrupt.h ****  * @ingroup PIN_INTERRUPT_enumerations
  87:C:/Workspaces/DAVE-4.4.2-64Bit/GarbageCollector/XMC4200_GC/Dave/Generated/PIN_INTERRUPT\pin_interrupt.h ****  * @{
  88:C:/Workspaces/DAVE-4.4.2-64Bit/GarbageCollector/XMC4200_GC/Dave/Generated/PIN_INTERRUPT\pin_interrupt.h ****  */
  89:C:/Workspaces/DAVE-4.4.2-64Bit/GarbageCollector/XMC4200_GC/Dave/Generated/PIN_INTERRUPT\pin_interrupt.h **** /*
  90:C:/Workspaces/DAVE-4.4.2-64Bit/GarbageCollector/XMC4200_GC/Dave/Generated/PIN_INTERRUPT\pin_interrupt.h ****  * @brief enumeration for PIN_INTERRUPT APP
  91:C:/Workspaces/DAVE-4.4.2-64Bit/GarbageCollector/XMC4200_GC/Dave/Generated/PIN_INTERRUPT\pin_interrupt.h ****  */
  92:C:/Workspaces/DAVE-4.4.2-64Bit/GarbageCollector/XMC4200_GC/Dave/Generated/PIN_INTERRUPT\pin_interrupt.h **** typedef enum PIN_INTERRUPT_STATUS
  93:C:/Workspaces/DAVE-4.4.2-64Bit/GarbageCollector/XMC4200_GC/Dave/Generated/PIN_INTERRUPT\pin_interrupt.h **** {
  94:C:/Workspaces/DAVE-4.4.2-64Bit/GarbageCollector/XMC4200_GC/Dave/Generated/PIN_INTERRUPT\pin_interrupt.h ****   PIN_INTERRUPT_STATUS_SUCCESS = 0U,        /**<APP initialization is success */
  95:C:/Workspaces/DAVE-4.4.2-64Bit/GarbageCollector/XMC4200_GC/Dave/Generated/PIN_INTERRUPT\pin_interrupt.h ****   PIN_INTERRUPT_STATUS_FAILURE = 1U         /**<APP initialization is failure */
  96:C:/Workspaces/DAVE-4.4.2-64Bit/GarbageCollector/XMC4200_GC/Dave/Generated/PIN_INTERRUPT\pin_interrupt.h **** } PIN_INTERRUPT_STATUS_t;
  97:C:/Workspaces/DAVE-4.4.2-64Bit/GarbageCollector/XMC4200_GC/Dave/Generated/PIN_INTERRUPT\pin_interrupt.h **** 
  98:C:/Workspaces/DAVE-4.4.2-64Bit/GarbageCollector/XMC4200_GC/Dave/Generated/PIN_INTERRUPT\pin_interrupt.h **** 
  99:C:/Workspaces/DAVE-4.4.2-64Bit/GarbageCollector/XMC4200_GC/Dave/Generated/PIN_INTERRUPT\pin_interrupt.h **** /**
 100:C:/Workspaces/DAVE-4.4.2-64Bit/GarbageCollector/XMC4200_GC/Dave/Generated/PIN_INTERRUPT\pin_interrupt.h ****  * Defines trigger edge for the event generation by ETLx (Event Trigger Logic, x = [0 to 3]) unit, 
 101:C:/Workspaces/DAVE-4.4.2-64Bit/GarbageCollector/XMC4200_GC/Dave/Generated/PIN_INTERRUPT\pin_interrupt.h ****  * from ERSx(Event request source, x = [0 to 3]) unit.
 102:C:/Workspaces/DAVE-4.4.2-64Bit/GarbageCollector/XMC4200_GC/Dave/Generated/PIN_INTERRUPT\pin_interrupt.h ****  */
 103:C:/Workspaces/DAVE-4.4.2-64Bit/GarbageCollector/XMC4200_GC/Dave/Generated/PIN_INTERRUPT\pin_interrupt.h **** typedef enum PIN_INTERRUPT_EDGE
 104:C:/Workspaces/DAVE-4.4.2-64Bit/GarbageCollector/XMC4200_GC/Dave/Generated/PIN_INTERRUPT\pin_interrupt.h **** {
 105:C:/Workspaces/DAVE-4.4.2-64Bit/GarbageCollector/XMC4200_GC/Dave/Generated/PIN_INTERRUPT\pin_interrupt.h ****   PIN_INTERRUPT_EDGE_NONE = 0U, /**< no event enabled */
 106:C:/Workspaces/DAVE-4.4.2-64Bit/GarbageCollector/XMC4200_GC/Dave/Generated/PIN_INTERRUPT\pin_interrupt.h ****   PIN_INTERRUPT_EDGE_RISING = 1U,   /**< detection of rising edge generates the event */
 107:C:/Workspaces/DAVE-4.4.2-64Bit/GarbageCollector/XMC4200_GC/Dave/Generated/PIN_INTERRUPT\pin_interrupt.h ****   PIN_INTERRUPT_EDGE_FALLING = 2U,  /**< detection of falling edge generates the event */
 108:C:/Workspaces/DAVE-4.4.2-64Bit/GarbageCollector/XMC4200_GC/Dave/Generated/PIN_INTERRUPT\pin_interrupt.h ****   PIN_INTERRUPT_EDGE_BOTH = 3U      /**< detection of either edges generates the event */
 109:C:/Workspaces/DAVE-4.4.2-64Bit/GarbageCollector/XMC4200_GC/Dave/Generated/PIN_INTERRUPT\pin_interrupt.h **** } PIN_INTERRUPT_EDGE_t;
 110:C:/Workspaces/DAVE-4.4.2-64Bit/GarbageCollector/XMC4200_GC/Dave/Generated/PIN_INTERRUPT\pin_interrupt.h **** /**
 111:C:/Workspaces/DAVE-4.4.2-64Bit/GarbageCollector/XMC4200_GC/Dave/Generated/PIN_INTERRUPT\pin_interrupt.h ****  * @}
 112:C:/Workspaces/DAVE-4.4.2-64Bit/GarbageCollector/XMC4200_GC/Dave/Generated/PIN_INTERRUPT\pin_interrupt.h ****  */
 113:C:/Workspaces/DAVE-4.4.2-64Bit/GarbageCollector/XMC4200_GC/Dave/Generated/PIN_INTERRUPT\pin_interrupt.h **** 
 114:C:/Workspaces/DAVE-4.4.2-64Bit/GarbageCollector/XMC4200_GC/Dave/Generated/PIN_INTERRUPT\pin_interrupt.h **** /**************************************************************************************************
 115:C:/Workspaces/DAVE-4.4.2-64Bit/GarbageCollector/XMC4200_GC/Dave/Generated/PIN_INTERRUPT\pin_interrupt.h **** * DATA STRUCTURES
 116:C:/Workspaces/DAVE-4.4.2-64Bit/GarbageCollector/XMC4200_GC/Dave/Generated/PIN_INTERRUPT\pin_interrupt.h **** ***************************************************************************************************
 117:C:/Workspaces/DAVE-4.4.2-64Bit/GarbageCollector/XMC4200_GC/Dave/Generated/PIN_INTERRUPT\pin_interrupt.h **** /**
 118:C:/Workspaces/DAVE-4.4.2-64Bit/GarbageCollector/XMC4200_GC/Dave/Generated/PIN_INTERRUPT\pin_interrupt.h ****  * @ingroup PIN_INTERRUPT_datastructures
 119:C:/Workspaces/DAVE-4.4.2-64Bit/GarbageCollector/XMC4200_GC/Dave/Generated/PIN_INTERRUPT\pin_interrupt.h ****  * @{
 120:C:/Workspaces/DAVE-4.4.2-64Bit/GarbageCollector/XMC4200_GC/Dave/Generated/PIN_INTERRUPT\pin_interrupt.h ****  */
 121:C:/Workspaces/DAVE-4.4.2-64Bit/GarbageCollector/XMC4200_GC/Dave/Generated/PIN_INTERRUPT\pin_interrupt.h **** 
 122:C:/Workspaces/DAVE-4.4.2-64Bit/GarbageCollector/XMC4200_GC/Dave/Generated/PIN_INTERRUPT\pin_interrupt.h **** /**
 123:C:/Workspaces/DAVE-4.4.2-64Bit/GarbageCollector/XMC4200_GC/Dave/Generated/PIN_INTERRUPT\pin_interrupt.h ****  * @brief Configuration structure for PIN_INTERRUPT APP
 124:C:/Workspaces/DAVE-4.4.2-64Bit/GarbageCollector/XMC4200_GC/Dave/Generated/PIN_INTERRUPT\pin_interrupt.h ****  */
 125:C:/Workspaces/DAVE-4.4.2-64Bit/GarbageCollector/XMC4200_GC/Dave/Generated/PIN_INTERRUPT\pin_interrupt.h **** typedef struct PIN_INTERRUPT
 126:C:/Workspaces/DAVE-4.4.2-64Bit/GarbageCollector/XMC4200_GC/Dave/Generated/PIN_INTERRUPT\pin_interrupt.h **** {
 127:C:/Workspaces/DAVE-4.4.2-64Bit/GarbageCollector/XMC4200_GC/Dave/Generated/PIN_INTERRUPT\pin_interrupt.h ****   XMC_ERU_t *eru;  /**< Mapped ERU module */
 128:C:/Workspaces/DAVE-4.4.2-64Bit/GarbageCollector/XMC4200_GC/Dave/Generated/PIN_INTERRUPT\pin_interrupt.h ****   XMC_GPIO_PORT_t *port;  /**< Mapped port number */
 129:C:/Workspaces/DAVE-4.4.2-64Bit/GarbageCollector/XMC4200_GC/Dave/Generated/PIN_INTERRUPT\pin_interrupt.h ****   XMC_GPIO_CONFIG_t gpio_config;   /**< Initializes the input pin characteristics */
 130:C:/Workspaces/DAVE-4.4.2-64Bit/GarbageCollector/XMC4200_GC/Dave/Generated/PIN_INTERRUPT\pin_interrupt.h ****   XMC_ERU_ETL_CONFIG_t etl_config;  /**< reference to ERUx_ETLy (x = [0..1], y = [0..4])
 131:C:/Workspaces/DAVE-4.4.2-64Bit/GarbageCollector/XMC4200_GC/Dave/Generated/PIN_INTERRUPT\pin_interrupt.h ****                                                       module configuration */
 132:C:/Workspaces/DAVE-4.4.2-64Bit/GarbageCollector/XMC4200_GC/Dave/Generated/PIN_INTERRUPT\pin_interrupt.h **** #if (UC_SERIES == XMC14)
 133:C:/Workspaces/DAVE-4.4.2-64Bit/GarbageCollector/XMC4200_GC/Dave/Generated/PIN_INTERRUPT\pin_interrupt.h ****   XMC_SCU_IRQCTRL_t irqctrl;  /**< selects the interrupt source for a NVIC interrupt node*/
 134:C:/Workspaces/DAVE-4.4.2-64Bit/GarbageCollector/XMC4200_GC/Dave/Generated/PIN_INTERRUPT\pin_interrupt.h **** #endif
 135:C:/Workspaces/DAVE-4.4.2-64Bit/GarbageCollector/XMC4200_GC/Dave/Generated/PIN_INTERRUPT\pin_interrupt.h ****   IRQn_Type IRQn;       /**< Mapped NVIC Node */
 136:C:/Workspaces/DAVE-4.4.2-64Bit/GarbageCollector/XMC4200_GC/Dave/Generated/PIN_INTERRUPT\pin_interrupt.h ****   uint8_t irq_priority; 	  /**< Node Interrupt Priority */
 137:C:/Workspaces/DAVE-4.4.2-64Bit/GarbageCollector/XMC4200_GC/Dave/Generated/PIN_INTERRUPT\pin_interrupt.h **** #if (UC_FAMILY == XMC4)
 138:C:/Workspaces/DAVE-4.4.2-64Bit/GarbageCollector/XMC4200_GC/Dave/Generated/PIN_INTERRUPT\pin_interrupt.h ****   uint8_t irq_subpriority;  /**< Node Interrupt SubPriority only valid for XMC4x */
 139:C:/Workspaces/DAVE-4.4.2-64Bit/GarbageCollector/XMC4200_GC/Dave/Generated/PIN_INTERRUPT\pin_interrupt.h **** #endif
 140:C:/Workspaces/DAVE-4.4.2-64Bit/GarbageCollector/XMC4200_GC/Dave/Generated/PIN_INTERRUPT\pin_interrupt.h ****   uint8_t etl; /*< ETLx channel (x = [0..3])*/
 141:C:/Workspaces/DAVE-4.4.2-64Bit/GarbageCollector/XMC4200_GC/Dave/Generated/PIN_INTERRUPT\pin_interrupt.h ****   uint8_t ogu; /*< OGUy channel (y = [0..3])*/
 142:C:/Workspaces/DAVE-4.4.2-64Bit/GarbageCollector/XMC4200_GC/Dave/Generated/PIN_INTERRUPT\pin_interrupt.h ****   uint8_t pin; /*< Mapped pin number */
 143:C:/Workspaces/DAVE-4.4.2-64Bit/GarbageCollector/XMC4200_GC/Dave/Generated/PIN_INTERRUPT\pin_interrupt.h ****   bool enable_at_init;  /**< Interrupt enable for Node at initialization*/
 144:C:/Workspaces/DAVE-4.4.2-64Bit/GarbageCollector/XMC4200_GC/Dave/Generated/PIN_INTERRUPT\pin_interrupt.h **** } PIN_INTERRUPT_t;
 145:C:/Workspaces/DAVE-4.4.2-64Bit/GarbageCollector/XMC4200_GC/Dave/Generated/PIN_INTERRUPT\pin_interrupt.h **** /**
 146:C:/Workspaces/DAVE-4.4.2-64Bit/GarbageCollector/XMC4200_GC/Dave/Generated/PIN_INTERRUPT\pin_interrupt.h ****  * @}
 147:C:/Workspaces/DAVE-4.4.2-64Bit/GarbageCollector/XMC4200_GC/Dave/Generated/PIN_INTERRUPT\pin_interrupt.h ****  */
 148:C:/Workspaces/DAVE-4.4.2-64Bit/GarbageCollector/XMC4200_GC/Dave/Generated/PIN_INTERRUPT\pin_interrupt.h **** 
 149:C:/Workspaces/DAVE-4.4.2-64Bit/GarbageCollector/XMC4200_GC/Dave/Generated/PIN_INTERRUPT\pin_interrupt.h **** #ifdef __cplusplus
 150:C:/Workspaces/DAVE-4.4.2-64Bit/GarbageCollector/XMC4200_GC/Dave/Generated/PIN_INTERRUPT\pin_interrupt.h **** extern "C" {
 151:C:/Workspaces/DAVE-4.4.2-64Bit/GarbageCollector/XMC4200_GC/Dave/Generated/PIN_INTERRUPT\pin_interrupt.h **** #endif
 152:C:/Workspaces/DAVE-4.4.2-64Bit/GarbageCollector/XMC4200_GC/Dave/Generated/PIN_INTERRUPT\pin_interrupt.h **** /**************************************************************************************************
 153:C:/Workspaces/DAVE-4.4.2-64Bit/GarbageCollector/XMC4200_GC/Dave/Generated/PIN_INTERRUPT\pin_interrupt.h ****  * API Prototypes
 154:C:/Workspaces/DAVE-4.4.2-64Bit/GarbageCollector/XMC4200_GC/Dave/Generated/PIN_INTERRUPT\pin_interrupt.h ****  **************************************************************************************************
 155:C:/Workspaces/DAVE-4.4.2-64Bit/GarbageCollector/XMC4200_GC/Dave/Generated/PIN_INTERRUPT\pin_interrupt.h **** /**
 156:C:/Workspaces/DAVE-4.4.2-64Bit/GarbageCollector/XMC4200_GC/Dave/Generated/PIN_INTERRUPT\pin_interrupt.h ****  * @ingroup PIN_INTERRUPT_apidoc
 157:C:/Workspaces/DAVE-4.4.2-64Bit/GarbageCollector/XMC4200_GC/Dave/Generated/PIN_INTERRUPT\pin_interrupt.h ****  * @{
 158:C:/Workspaces/DAVE-4.4.2-64Bit/GarbageCollector/XMC4200_GC/Dave/Generated/PIN_INTERRUPT\pin_interrupt.h ****  */
 159:C:/Workspaces/DAVE-4.4.2-64Bit/GarbageCollector/XMC4200_GC/Dave/Generated/PIN_INTERRUPT\pin_interrupt.h **** /**
 160:C:/Workspaces/DAVE-4.4.2-64Bit/GarbageCollector/XMC4200_GC/Dave/Generated/PIN_INTERRUPT\pin_interrupt.h ****  * @brief Get PIN_INTERRUPT APP version
 161:C:/Workspaces/DAVE-4.4.2-64Bit/GarbageCollector/XMC4200_GC/Dave/Generated/PIN_INTERRUPT\pin_interrupt.h ****  * @return DAVE_APP_VERSION_t APP version information (major, minor and patch number)
 162:C:/Workspaces/DAVE-4.4.2-64Bit/GarbageCollector/XMC4200_GC/Dave/Generated/PIN_INTERRUPT\pin_interrupt.h ****  *
 163:C:/Workspaces/DAVE-4.4.2-64Bit/GarbageCollector/XMC4200_GC/Dave/Generated/PIN_INTERRUPT\pin_interrupt.h ****  * \par<b>Description: </b><br>
 164:C:/Workspaces/DAVE-4.4.2-64Bit/GarbageCollector/XMC4200_GC/Dave/Generated/PIN_INTERRUPT\pin_interrupt.h ****  * The function can be used to check application software compatibility with a
 165:C:/Workspaces/DAVE-4.4.2-64Bit/GarbageCollector/XMC4200_GC/Dave/Generated/PIN_INTERRUPT\pin_interrupt.h ****  * specific version of the APP.
 166:C:/Workspaces/DAVE-4.4.2-64Bit/GarbageCollector/XMC4200_GC/Dave/Generated/PIN_INTERRUPT\pin_interrupt.h ****  *
 167:C:/Workspaces/DAVE-4.4.2-64Bit/GarbageCollector/XMC4200_GC/Dave/Generated/PIN_INTERRUPT\pin_interrupt.h ****  * \par<b>Example Usage:</b><br>
 168:C:/Workspaces/DAVE-4.4.2-64Bit/GarbageCollector/XMC4200_GC/Dave/Generated/PIN_INTERRUPT\pin_interrupt.h ****  *
 169:C:/Workspaces/DAVE-4.4.2-64Bit/GarbageCollector/XMC4200_GC/Dave/Generated/PIN_INTERRUPT\pin_interrupt.h ****  * @code
 170:C:/Workspaces/DAVE-4.4.2-64Bit/GarbageCollector/XMC4200_GC/Dave/Generated/PIN_INTERRUPT\pin_interrupt.h ****  * #include <DAVE.h>
 171:C:/Workspaces/DAVE-4.4.2-64Bit/GarbageCollector/XMC4200_GC/Dave/Generated/PIN_INTERRUPT\pin_interrupt.h ****  *
 172:C:/Workspaces/DAVE-4.4.2-64Bit/GarbageCollector/XMC4200_GC/Dave/Generated/PIN_INTERRUPT\pin_interrupt.h ****  * int main(void) {
 173:C:/Workspaces/DAVE-4.4.2-64Bit/GarbageCollector/XMC4200_GC/Dave/Generated/PIN_INTERRUPT\pin_interrupt.h ****  *   DAVE_STATUS_t init_status;
 174:C:/Workspaces/DAVE-4.4.2-64Bit/GarbageCollector/XMC4200_GC/Dave/Generated/PIN_INTERRUPT\pin_interrupt.h ****  *   DAVE_APP_VERSION_t version;
 175:C:/Workspaces/DAVE-4.4.2-64Bit/GarbageCollector/XMC4200_GC/Dave/Generated/PIN_INTERRUPT\pin_interrupt.h ****  *
 176:C:/Workspaces/DAVE-4.4.2-64Bit/GarbageCollector/XMC4200_GC/Dave/Generated/PIN_INTERRUPT\pin_interrupt.h ****  *   // Initialize PIN_INTERRUPT APP:
 177:C:/Workspaces/DAVE-4.4.2-64Bit/GarbageCollector/XMC4200_GC/Dave/Generated/PIN_INTERRUPT\pin_interrupt.h ****  *   // PIN_INTERRUPT_Init() is called from within DAVE_Init().
 178:C:/Workspaces/DAVE-4.4.2-64Bit/GarbageCollector/XMC4200_GC/Dave/Generated/PIN_INTERRUPT\pin_interrupt.h ****  *   init_status = DAVE_Init();
 179:C:/Workspaces/DAVE-4.4.2-64Bit/GarbageCollector/XMC4200_GC/Dave/Generated/PIN_INTERRUPT\pin_interrupt.h ****  *
 180:C:/Workspaces/DAVE-4.4.2-64Bit/GarbageCollector/XMC4200_GC/Dave/Generated/PIN_INTERRUPT\pin_interrupt.h ****  *   if (DAVE_STATUS_SUCCESS == init_status)
 181:C:/Workspaces/DAVE-4.4.2-64Bit/GarbageCollector/XMC4200_GC/Dave/Generated/PIN_INTERRUPT\pin_interrupt.h ****  *   {
 182:C:/Workspaces/DAVE-4.4.2-64Bit/GarbageCollector/XMC4200_GC/Dave/Generated/PIN_INTERRUPT\pin_interrupt.h ****  *     version = PIN_INTERRUPT_GetAppVersion();
 183:C:/Workspaces/DAVE-4.4.2-64Bit/GarbageCollector/XMC4200_GC/Dave/Generated/PIN_INTERRUPT\pin_interrupt.h ****  *     if (version.major != 4U) {
 184:C:/Workspaces/DAVE-4.4.2-64Bit/GarbageCollector/XMC4200_GC/Dave/Generated/PIN_INTERRUPT\pin_interrupt.h ****  *       // Probably, not the right version.
 185:C:/Workspaces/DAVE-4.4.2-64Bit/GarbageCollector/XMC4200_GC/Dave/Generated/PIN_INTERRUPT\pin_interrupt.h ****  *     }
 186:C:/Workspaces/DAVE-4.4.2-64Bit/GarbageCollector/XMC4200_GC/Dave/Generated/PIN_INTERRUPT\pin_interrupt.h ****  *   }
 187:C:/Workspaces/DAVE-4.4.2-64Bit/GarbageCollector/XMC4200_GC/Dave/Generated/PIN_INTERRUPT\pin_interrupt.h ****  *
 188:C:/Workspaces/DAVE-4.4.2-64Bit/GarbageCollector/XMC4200_GC/Dave/Generated/PIN_INTERRUPT\pin_interrupt.h ****  *     // More code here
 189:C:/Workspaces/DAVE-4.4.2-64Bit/GarbageCollector/XMC4200_GC/Dave/Generated/PIN_INTERRUPT\pin_interrupt.h ****  *     while(1)
 190:C:/Workspaces/DAVE-4.4.2-64Bit/GarbageCollector/XMC4200_GC/Dave/Generated/PIN_INTERRUPT\pin_interrupt.h ****  *     {
 191:C:/Workspaces/DAVE-4.4.2-64Bit/GarbageCollector/XMC4200_GC/Dave/Generated/PIN_INTERRUPT\pin_interrupt.h ****  *     }
 192:C:/Workspaces/DAVE-4.4.2-64Bit/GarbageCollector/XMC4200_GC/Dave/Generated/PIN_INTERRUPT\pin_interrupt.h ****  *   return (1);
 193:C:/Workspaces/DAVE-4.4.2-64Bit/GarbageCollector/XMC4200_GC/Dave/Generated/PIN_INTERRUPT\pin_interrupt.h ****  * }
 194:C:/Workspaces/DAVE-4.4.2-64Bit/GarbageCollector/XMC4200_GC/Dave/Generated/PIN_INTERRUPT\pin_interrupt.h ****  * @endcode<BR>
 195:C:/Workspaces/DAVE-4.4.2-64Bit/GarbageCollector/XMC4200_GC/Dave/Generated/PIN_INTERRUPT\pin_interrupt.h ****  */
 196:C:/Workspaces/DAVE-4.4.2-64Bit/GarbageCollector/XMC4200_GC/Dave/Generated/PIN_INTERRUPT\pin_interrupt.h **** DAVE_APP_VERSION_t PIN_INTERRUPT_GetAppVersion(void);
 197:C:/Workspaces/DAVE-4.4.2-64Bit/GarbageCollector/XMC4200_GC/Dave/Generated/PIN_INTERRUPT\pin_interrupt.h **** 
 198:C:/Workspaces/DAVE-4.4.2-64Bit/GarbageCollector/XMC4200_GC/Dave/Generated/PIN_INTERRUPT\pin_interrupt.h **** /**
 199:C:/Workspaces/DAVE-4.4.2-64Bit/GarbageCollector/XMC4200_GC/Dave/Generated/PIN_INTERRUPT\pin_interrupt.h ****  * @brief Initializes a PIN_INTERRUPT APP instance
 200:C:/Workspaces/DAVE-4.4.2-64Bit/GarbageCollector/XMC4200_GC/Dave/Generated/PIN_INTERRUPT\pin_interrupt.h ****  * @param handle Pointer pointing to APP data structure. Refer @ref PIN_INTERRUPT_t for details.
 201:C:/Workspaces/DAVE-4.4.2-64Bit/GarbageCollector/XMC4200_GC/Dave/Generated/PIN_INTERRUPT\pin_interrupt.h ****  * @return
 202:C:/Workspaces/DAVE-4.4.2-64Bit/GarbageCollector/XMC4200_GC/Dave/Generated/PIN_INTERRUPT\pin_interrupt.h ****  *            PIN_INTERRUPT_STATUS_SUCCESS             : if initialization is successful\n
 203:C:/Workspaces/DAVE-4.4.2-64Bit/GarbageCollector/XMC4200_GC/Dave/Generated/PIN_INTERRUPT\pin_interrupt.h ****  *            PIN_INTERRUPT_STATUS_FAILURE             : if initialization is failed
 204:C:/Workspaces/DAVE-4.4.2-64Bit/GarbageCollector/XMC4200_GC/Dave/Generated/PIN_INTERRUPT\pin_interrupt.h ****  *
 205:C:/Workspaces/DAVE-4.4.2-64Bit/GarbageCollector/XMC4200_GC/Dave/Generated/PIN_INTERRUPT\pin_interrupt.h ****  * \par<b>Description:</b><br>
 206:C:/Workspaces/DAVE-4.4.2-64Bit/GarbageCollector/XMC4200_GC/Dave/Generated/PIN_INTERRUPT\pin_interrupt.h ****  * PIN_INTERRUPT_Init API is called during initialization of DAVE APPS. This API Initializes input 
 207:C:/Workspaces/DAVE-4.4.2-64Bit/GarbageCollector/XMC4200_GC/Dave/Generated/PIN_INTERRUPT\pin_interrupt.h ****  * ERU and OGU hardware module initialization, Configures NVIC node and its priority in order to ge
 208:C:/Workspaces/DAVE-4.4.2-64Bit/GarbageCollector/XMC4200_GC/Dave/Generated/PIN_INTERRUPT\pin_interrupt.h ****  *
 209:C:/Workspaces/DAVE-4.4.2-64Bit/GarbageCollector/XMC4200_GC/Dave/Generated/PIN_INTERRUPT\pin_interrupt.h ****  * \par<b>Example Usage:</b><br>
 210:C:/Workspaces/DAVE-4.4.2-64Bit/GarbageCollector/XMC4200_GC/Dave/Generated/PIN_INTERRUPT\pin_interrupt.h ****  *
 211:C:/Workspaces/DAVE-4.4.2-64Bit/GarbageCollector/XMC4200_GC/Dave/Generated/PIN_INTERRUPT\pin_interrupt.h ****  * @code
 212:C:/Workspaces/DAVE-4.4.2-64Bit/GarbageCollector/XMC4200_GC/Dave/Generated/PIN_INTERRUPT\pin_interrupt.h ****  * #include <DAVE.h>
 213:C:/Workspaces/DAVE-4.4.2-64Bit/GarbageCollector/XMC4200_GC/Dave/Generated/PIN_INTERRUPT\pin_interrupt.h ****  *
 214:C:/Workspaces/DAVE-4.4.2-64Bit/GarbageCollector/XMC4200_GC/Dave/Generated/PIN_INTERRUPT\pin_interrupt.h ****  * int main(void)
 215:C:/Workspaces/DAVE-4.4.2-64Bit/GarbageCollector/XMC4200_GC/Dave/Generated/PIN_INTERRUPT\pin_interrupt.h ****  * {
 216:C:/Workspaces/DAVE-4.4.2-64Bit/GarbageCollector/XMC4200_GC/Dave/Generated/PIN_INTERRUPT\pin_interrupt.h ****  *   DAVE_STATUS_t status;
 217:C:/Workspaces/DAVE-4.4.2-64Bit/GarbageCollector/XMC4200_GC/Dave/Generated/PIN_INTERRUPT\pin_interrupt.h ****  *
 218:C:/Workspaces/DAVE-4.4.2-64Bit/GarbageCollector/XMC4200_GC/Dave/Generated/PIN_INTERRUPT\pin_interrupt.h ****  *   status = DAVE_Init();  //  PIN_INTERRUPT_Init API is called during initialization of DAVE APPS
 219:C:/Workspaces/DAVE-4.4.2-64Bit/GarbageCollector/XMC4200_GC/Dave/Generated/PIN_INTERRUPT\pin_interrupt.h ****  *   if(DAVE_STATUS_SUCCESS == status)
 220:C:/Workspaces/DAVE-4.4.2-64Bit/GarbageCollector/XMC4200_GC/Dave/Generated/PIN_INTERRUPT\pin_interrupt.h ****  *   {
 221:C:/Workspaces/DAVE-4.4.2-64Bit/GarbageCollector/XMC4200_GC/Dave/Generated/PIN_INTERRUPT\pin_interrupt.h ****  *    // user code
 222:C:/Workspaces/DAVE-4.4.2-64Bit/GarbageCollector/XMC4200_GC/Dave/Generated/PIN_INTERRUPT\pin_interrupt.h ****  *
 223:C:/Workspaces/DAVE-4.4.2-64Bit/GarbageCollector/XMC4200_GC/Dave/Generated/PIN_INTERRUPT\pin_interrupt.h ****  *     while(1)
 224:C:/Workspaces/DAVE-4.4.2-64Bit/GarbageCollector/XMC4200_GC/Dave/Generated/PIN_INTERRUPT\pin_interrupt.h ****  *     {
 225:C:/Workspaces/DAVE-4.4.2-64Bit/GarbageCollector/XMC4200_GC/Dave/Generated/PIN_INTERRUPT\pin_interrupt.h ****  *
 226:C:/Workspaces/DAVE-4.4.2-64Bit/GarbageCollector/XMC4200_GC/Dave/Generated/PIN_INTERRUPT\pin_interrupt.h ****  *     }
 227:C:/Workspaces/DAVE-4.4.2-64Bit/GarbageCollector/XMC4200_GC/Dave/Generated/PIN_INTERRUPT\pin_interrupt.h ****  *   }
 228:C:/Workspaces/DAVE-4.4.2-64Bit/GarbageCollector/XMC4200_GC/Dave/Generated/PIN_INTERRUPT\pin_interrupt.h ****  *   return (1);
 229:C:/Workspaces/DAVE-4.4.2-64Bit/GarbageCollector/XMC4200_GC/Dave/Generated/PIN_INTERRUPT\pin_interrupt.h ****  * }
 230:C:/Workspaces/DAVE-4.4.2-64Bit/GarbageCollector/XMC4200_GC/Dave/Generated/PIN_INTERRUPT\pin_interrupt.h ****  *
 231:C:/Workspaces/DAVE-4.4.2-64Bit/GarbageCollector/XMC4200_GC/Dave/Generated/PIN_INTERRUPT\pin_interrupt.h ****  * @endcode<BR>
 232:C:/Workspaces/DAVE-4.4.2-64Bit/GarbageCollector/XMC4200_GC/Dave/Generated/PIN_INTERRUPT\pin_interrupt.h ****  */
 233:C:/Workspaces/DAVE-4.4.2-64Bit/GarbageCollector/XMC4200_GC/Dave/Generated/PIN_INTERRUPT\pin_interrupt.h **** PIN_INTERRUPT_STATUS_t PIN_INTERRUPT_Init(const PIN_INTERRUPT_t *const handle);
 234:C:/Workspaces/DAVE-4.4.2-64Bit/GarbageCollector/XMC4200_GC/Dave/Generated/PIN_INTERRUPT\pin_interrupt.h **** 
 235:C:/Workspaces/DAVE-4.4.2-64Bit/GarbageCollector/XMC4200_GC/Dave/Generated/PIN_INTERRUPT\pin_interrupt.h **** /**
 236:C:/Workspaces/DAVE-4.4.2-64Bit/GarbageCollector/XMC4200_GC/Dave/Generated/PIN_INTERRUPT\pin_interrupt.h ****  * @brief Enables the IRQ.
 237:C:/Workspaces/DAVE-4.4.2-64Bit/GarbageCollector/XMC4200_GC/Dave/Generated/PIN_INTERRUPT\pin_interrupt.h ****  * @param handle Pointer pointing to APP data structure. Refer @ref PIN_INTERRUPT_t for details.
 238:C:/Workspaces/DAVE-4.4.2-64Bit/GarbageCollector/XMC4200_GC/Dave/Generated/PIN_INTERRUPT\pin_interrupt.h ****  * @return None
 239:C:/Workspaces/DAVE-4.4.2-64Bit/GarbageCollector/XMC4200_GC/Dave/Generated/PIN_INTERRUPT\pin_interrupt.h ****  * <BR><P ALIGN="LEFT"><B>Example:</B>
 240:C:/Workspaces/DAVE-4.4.2-64Bit/GarbageCollector/XMC4200_GC/Dave/Generated/PIN_INTERRUPT\pin_interrupt.h ****  *
 241:C:/Workspaces/DAVE-4.4.2-64Bit/GarbageCollector/XMC4200_GC/Dave/Generated/PIN_INTERRUPT\pin_interrupt.h ****  * @code
 242:C:/Workspaces/DAVE-4.4.2-64Bit/GarbageCollector/XMC4200_GC/Dave/Generated/PIN_INTERRUPT\pin_interrupt.h ****  *  #include <DAVE.h>
 243:C:/Workspaces/DAVE-4.4.2-64Bit/GarbageCollector/XMC4200_GC/Dave/Generated/PIN_INTERRUPT\pin_interrupt.h ****  *
 244:C:/Workspaces/DAVE-4.4.2-64Bit/GarbageCollector/XMC4200_GC/Dave/Generated/PIN_INTERRUPT\pin_interrupt.h ****  *  int main(void)
 245:C:/Workspaces/DAVE-4.4.2-64Bit/GarbageCollector/XMC4200_GC/Dave/Generated/PIN_INTERRUPT\pin_interrupt.h ****  *  {
 246:C:/Workspaces/DAVE-4.4.2-64Bit/GarbageCollector/XMC4200_GC/Dave/Generated/PIN_INTERRUPT\pin_interrupt.h ****  *    DAVE_STATUS_t status;
 247:C:/Workspaces/DAVE-4.4.2-64Bit/GarbageCollector/XMC4200_GC/Dave/Generated/PIN_INTERRUPT\pin_interrupt.h ****  *
 248:C:/Workspaces/DAVE-4.4.2-64Bit/GarbageCollector/XMC4200_GC/Dave/Generated/PIN_INTERRUPT\pin_interrupt.h ****  *   status = DAVE_Init();  //  PIN_INTERRUPT_Init API is called during initialization of DAVE APPS
 249:C:/Workspaces/DAVE-4.4.2-64Bit/GarbageCollector/XMC4200_GC/Dave/Generated/PIN_INTERRUPT\pin_interrupt.h ****  *   if(DAVE_STATUS_SUCCESS == status)
 250:C:/Workspaces/DAVE-4.4.2-64Bit/GarbageCollector/XMC4200_GC/Dave/Generated/PIN_INTERRUPT\pin_interrupt.h ****  *   {
 251:C:/Workspaces/DAVE-4.4.2-64Bit/GarbageCollector/XMC4200_GC/Dave/Generated/PIN_INTERRUPT\pin_interrupt.h ****  *    // user code
 252:C:/Workspaces/DAVE-4.4.2-64Bit/GarbageCollector/XMC4200_GC/Dave/Generated/PIN_INTERRUPT\pin_interrupt.h ****  *
 253:C:/Workspaces/DAVE-4.4.2-64Bit/GarbageCollector/XMC4200_GC/Dave/Generated/PIN_INTERRUPT\pin_interrupt.h ****  *    PIN_INTERRUPT_Enable(&PIN_INTERRUPT_0);
 254:C:/Workspaces/DAVE-4.4.2-64Bit/GarbageCollector/XMC4200_GC/Dave/Generated/PIN_INTERRUPT\pin_interrupt.h ****  *    while(1)
 255:C:/Workspaces/DAVE-4.4.2-64Bit/GarbageCollector/XMC4200_GC/Dave/Generated/PIN_INTERRUPT\pin_interrupt.h ****  *    {}
 256:C:/Workspaces/DAVE-4.4.2-64Bit/GarbageCollector/XMC4200_GC/Dave/Generated/PIN_INTERRUPT\pin_interrupt.h ****  *   }
 257:C:/Workspaces/DAVE-4.4.2-64Bit/GarbageCollector/XMC4200_GC/Dave/Generated/PIN_INTERRUPT\pin_interrupt.h ****  *
 258:C:/Workspaces/DAVE-4.4.2-64Bit/GarbageCollector/XMC4200_GC/Dave/Generated/PIN_INTERRUPT\pin_interrupt.h ****  *    return (1);
 259:C:/Workspaces/DAVE-4.4.2-64Bit/GarbageCollector/XMC4200_GC/Dave/Generated/PIN_INTERRUPT\pin_interrupt.h ****  *  }
 260:C:/Workspaces/DAVE-4.4.2-64Bit/GarbageCollector/XMC4200_GC/Dave/Generated/PIN_INTERRUPT\pin_interrupt.h ****  * @endcode<BR> </p>
 261:C:/Workspaces/DAVE-4.4.2-64Bit/GarbageCollector/XMC4200_GC/Dave/Generated/PIN_INTERRUPT\pin_interrupt.h ****  */
 262:C:/Workspaces/DAVE-4.4.2-64Bit/GarbageCollector/XMC4200_GC/Dave/Generated/PIN_INTERRUPT\pin_interrupt.h **** __STATIC_INLINE void PIN_INTERRUPT_Enable(const PIN_INTERRUPT_t *const handle)
 263:C:/Workspaces/DAVE-4.4.2-64Bit/GarbageCollector/XMC4200_GC/Dave/Generated/PIN_INTERRUPT\pin_interrupt.h **** {
 264:C:/Workspaces/DAVE-4.4.2-64Bit/GarbageCollector/XMC4200_GC/Dave/Generated/PIN_INTERRUPT\pin_interrupt.h ****   XMC_ASSERT("PIN_INTERRUPT_Enable: Handler null pointer", handle != NULL);
 265:C:/Workspaces/DAVE-4.4.2-64Bit/GarbageCollector/XMC4200_GC/Dave/Generated/PIN_INTERRUPT\pin_interrupt.h ****   NVIC_EnableIRQ(handle->IRQn);
 266:C:/Workspaces/DAVE-4.4.2-64Bit/GarbageCollector/XMC4200_GC/Dave/Generated/PIN_INTERRUPT\pin_interrupt.h **** }
 267:C:/Workspaces/DAVE-4.4.2-64Bit/GarbageCollector/XMC4200_GC/Dave/Generated/PIN_INTERRUPT\pin_interrupt.h **** 
 268:C:/Workspaces/DAVE-4.4.2-64Bit/GarbageCollector/XMC4200_GC/Dave/Generated/PIN_INTERRUPT\pin_interrupt.h **** /**
 269:C:/Workspaces/DAVE-4.4.2-64Bit/GarbageCollector/XMC4200_GC/Dave/Generated/PIN_INTERRUPT\pin_interrupt.h ****  * @brief Disables the IRQ.
 270:C:/Workspaces/DAVE-4.4.2-64Bit/GarbageCollector/XMC4200_GC/Dave/Generated/PIN_INTERRUPT\pin_interrupt.h ****  * @param handle Pointer pointing to APP data structure. Refer @ref PIN_INTERRUPT_t for details.
 271:C:/Workspaces/DAVE-4.4.2-64Bit/GarbageCollector/XMC4200_GC/Dave/Generated/PIN_INTERRUPT\pin_interrupt.h ****  * @return None
 272:C:/Workspaces/DAVE-4.4.2-64Bit/GarbageCollector/XMC4200_GC/Dave/Generated/PIN_INTERRUPT\pin_interrupt.h ****  * <BR><P ALIGN="LEFT"><B>Example:</B>
 273:C:/Workspaces/DAVE-4.4.2-64Bit/GarbageCollector/XMC4200_GC/Dave/Generated/PIN_INTERRUPT\pin_interrupt.h ****  *
 274:C:/Workspaces/DAVE-4.4.2-64Bit/GarbageCollector/XMC4200_GC/Dave/Generated/PIN_INTERRUPT\pin_interrupt.h ****  * @code
 275:C:/Workspaces/DAVE-4.4.2-64Bit/GarbageCollector/XMC4200_GC/Dave/Generated/PIN_INTERRUPT\pin_interrupt.h ****  *  #include <DAVE.h>
 276:C:/Workspaces/DAVE-4.4.2-64Bit/GarbageCollector/XMC4200_GC/Dave/Generated/PIN_INTERRUPT\pin_interrupt.h ****  *
 277:C:/Workspaces/DAVE-4.4.2-64Bit/GarbageCollector/XMC4200_GC/Dave/Generated/PIN_INTERRUPT\pin_interrupt.h ****  *  int main(void)
 278:C:/Workspaces/DAVE-4.4.2-64Bit/GarbageCollector/XMC4200_GC/Dave/Generated/PIN_INTERRUPT\pin_interrupt.h ****  *  {
 279:C:/Workspaces/DAVE-4.4.2-64Bit/GarbageCollector/XMC4200_GC/Dave/Generated/PIN_INTERRUPT\pin_interrupt.h ****  *
 280:C:/Workspaces/DAVE-4.4.2-64Bit/GarbageCollector/XMC4200_GC/Dave/Generated/PIN_INTERRUPT\pin_interrupt.h ****  *    DAVE_STATUS_t status;
 281:C:/Workspaces/DAVE-4.4.2-64Bit/GarbageCollector/XMC4200_GC/Dave/Generated/PIN_INTERRUPT\pin_interrupt.h ****  *
 282:C:/Workspaces/DAVE-4.4.2-64Bit/GarbageCollector/XMC4200_GC/Dave/Generated/PIN_INTERRUPT\pin_interrupt.h ****  *   status = DAVE_Init();  //  PIN_INTERRUPT_Init API is called during initialization of DAVE APPS
 283:C:/Workspaces/DAVE-4.4.2-64Bit/GarbageCollector/XMC4200_GC/Dave/Generated/PIN_INTERRUPT\pin_interrupt.h ****  *   if(DAVE_STATUS_SUCCESS == status)
 284:C:/Workspaces/DAVE-4.4.2-64Bit/GarbageCollector/XMC4200_GC/Dave/Generated/PIN_INTERRUPT\pin_interrupt.h ****  *   {
 285:C:/Workspaces/DAVE-4.4.2-64Bit/GarbageCollector/XMC4200_GC/Dave/Generated/PIN_INTERRUPT\pin_interrupt.h ****  *    // user code
 286:C:/Workspaces/DAVE-4.4.2-64Bit/GarbageCollector/XMC4200_GC/Dave/Generated/PIN_INTERRUPT\pin_interrupt.h ****  *
 287:C:/Workspaces/DAVE-4.4.2-64Bit/GarbageCollector/XMC4200_GC/Dave/Generated/PIN_INTERRUPT\pin_interrupt.h ****  *    PIN_INTERRUPT_Disable(&PIN_INTERRUPT_0);
 288:C:/Workspaces/DAVE-4.4.2-64Bit/GarbageCollector/XMC4200_GC/Dave/Generated/PIN_INTERRUPT\pin_interrupt.h ****  *    while(1)
 289:C:/Workspaces/DAVE-4.4.2-64Bit/GarbageCollector/XMC4200_GC/Dave/Generated/PIN_INTERRUPT\pin_interrupt.h ****  *    {}
 290:C:/Workspaces/DAVE-4.4.2-64Bit/GarbageCollector/XMC4200_GC/Dave/Generated/PIN_INTERRUPT\pin_interrupt.h ****  *   }
 291:C:/Workspaces/DAVE-4.4.2-64Bit/GarbageCollector/XMC4200_GC/Dave/Generated/PIN_INTERRUPT\pin_interrupt.h ****  *
 292:C:/Workspaces/DAVE-4.4.2-64Bit/GarbageCollector/XMC4200_GC/Dave/Generated/PIN_INTERRUPT\pin_interrupt.h ****  *    return (1);
 293:C:/Workspaces/DAVE-4.4.2-64Bit/GarbageCollector/XMC4200_GC/Dave/Generated/PIN_INTERRUPT\pin_interrupt.h ****  *
 294:C:/Workspaces/DAVE-4.4.2-64Bit/GarbageCollector/XMC4200_GC/Dave/Generated/PIN_INTERRUPT\pin_interrupt.h ****  *  }
 295:C:/Workspaces/DAVE-4.4.2-64Bit/GarbageCollector/XMC4200_GC/Dave/Generated/PIN_INTERRUPT\pin_interrupt.h ****  * @endcode<BR> </p>
 296:C:/Workspaces/DAVE-4.4.2-64Bit/GarbageCollector/XMC4200_GC/Dave/Generated/PIN_INTERRUPT\pin_interrupt.h ****  */
 297:C:/Workspaces/DAVE-4.4.2-64Bit/GarbageCollector/XMC4200_GC/Dave/Generated/PIN_INTERRUPT\pin_interrupt.h **** __STATIC_INLINE void PIN_INTERRUPT_Disable(const PIN_INTERRUPT_t *const handle)
 298:C:/Workspaces/DAVE-4.4.2-64Bit/GarbageCollector/XMC4200_GC/Dave/Generated/PIN_INTERRUPT\pin_interrupt.h **** {
 299:C:/Workspaces/DAVE-4.4.2-64Bit/GarbageCollector/XMC4200_GC/Dave/Generated/PIN_INTERRUPT\pin_interrupt.h ****   XMC_ASSERT("PIN_INTERRUPT_Disable: Handler null pointer", handle != NULL);
 300:C:/Workspaces/DAVE-4.4.2-64Bit/GarbageCollector/XMC4200_GC/Dave/Generated/PIN_INTERRUPT\pin_interrupt.h ****   NVIC_DisableIRQ(handle->IRQn);
 301:C:/Workspaces/DAVE-4.4.2-64Bit/GarbageCollector/XMC4200_GC/Dave/Generated/PIN_INTERRUPT\pin_interrupt.h **** }
 302:C:/Workspaces/DAVE-4.4.2-64Bit/GarbageCollector/XMC4200_GC/Dave/Generated/PIN_INTERRUPT\pin_interrupt.h **** 
 303:C:/Workspaces/DAVE-4.4.2-64Bit/GarbageCollector/XMC4200_GC/Dave/Generated/PIN_INTERRUPT\pin_interrupt.h **** /**
 304:C:/Workspaces/DAVE-4.4.2-64Bit/GarbageCollector/XMC4200_GC/Dave/Generated/PIN_INTERRUPT\pin_interrupt.h **** * @brief Read input level of port pin.
 305:C:/Workspaces/DAVE-4.4.2-64Bit/GarbageCollector/XMC4200_GC/Dave/Generated/PIN_INTERRUPT\pin_interrupt.h **** * @param handle Pointer pointing to APP data structure. Refer @ref PIN_INTERRUPT_t for details.
 306:C:/Workspaces/DAVE-4.4.2-64Bit/GarbageCollector/XMC4200_GC/Dave/Generated/PIN_INTERRUPT\pin_interrupt.h **** * @return uint32_t input logic level. Range:0-1
 307:C:/Workspaces/DAVE-4.4.2-64Bit/GarbageCollector/XMC4200_GC/Dave/Generated/PIN_INTERRUPT\pin_interrupt.h **** *
 308:C:/Workspaces/DAVE-4.4.2-64Bit/GarbageCollector/XMC4200_GC/Dave/Generated/PIN_INTERRUPT\pin_interrupt.h **** * \par<b>Description:</b><br>
 309:C:/Workspaces/DAVE-4.4.2-64Bit/GarbageCollector/XMC4200_GC/Dave/Generated/PIN_INTERRUPT\pin_interrupt.h **** * This function reads the Pn_IN register and returns the current logical value at the GPIO pin.
 310:C:/Workspaces/DAVE-4.4.2-64Bit/GarbageCollector/XMC4200_GC/Dave/Generated/PIN_INTERRUPT\pin_interrupt.h **** *
 311:C:/Workspaces/DAVE-4.4.2-64Bit/GarbageCollector/XMC4200_GC/Dave/Generated/PIN_INTERRUPT\pin_interrupt.h **** *
 312:C:/Workspaces/DAVE-4.4.2-64Bit/GarbageCollector/XMC4200_GC/Dave/Generated/PIN_INTERRUPT\pin_interrupt.h **** * Example Usage:
 313:C:/Workspaces/DAVE-4.4.2-64Bit/GarbageCollector/XMC4200_GC/Dave/Generated/PIN_INTERRUPT\pin_interrupt.h **** * @code
 314:C:/Workspaces/DAVE-4.4.2-64Bit/GarbageCollector/XMC4200_GC/Dave/Generated/PIN_INTERRUPT\pin_interrupt.h **** * #include <DAVE.h>//Declarations from DAVE Code Generation (includes SFR declaration)
 315:C:/Workspaces/DAVE-4.4.2-64Bit/GarbageCollector/XMC4200_GC/Dave/Generated/PIN_INTERRUPT\pin_interrupt.h **** * int main(void)
 316:C:/Workspaces/DAVE-4.4.2-64Bit/GarbageCollector/XMC4200_GC/Dave/Generated/PIN_INTERRUPT\pin_interrupt.h **** * {
 317:C:/Workspaces/DAVE-4.4.2-64Bit/GarbageCollector/XMC4200_GC/Dave/Generated/PIN_INTERRUPT\pin_interrupt.h **** *   DAVE_STATUS_t status;
 318:C:/Workspaces/DAVE-4.4.2-64Bit/GarbageCollector/XMC4200_GC/Dave/Generated/PIN_INTERRUPT\pin_interrupt.h **** *   uint32_t pin_status;
 319:C:/Workspaces/DAVE-4.4.2-64Bit/GarbageCollector/XMC4200_GC/Dave/Generated/PIN_INTERRUPT\pin_interrupt.h **** *   status = DAVE_Init();   // (DAVE_STATUS_t)PIN_INTERRUPT_Init(&PIN_INTERRUPT_0) is called within
 320:C:/Workspaces/DAVE-4.4.2-64Bit/GarbageCollector/XMC4200_GC/Dave/Generated/PIN_INTERRUPT\pin_interrupt.h **** *   if(status == DAVE_STATUS_SUCCESS)
 321:C:/Workspaces/DAVE-4.4.2-64Bit/GarbageCollector/XMC4200_GC/Dave/Generated/PIN_INTERRUPT\pin_interrupt.h **** *   {
 322:C:/Workspaces/DAVE-4.4.2-64Bit/GarbageCollector/XMC4200_GC/Dave/Generated/PIN_INTERRUPT\pin_interrupt.h **** *     XMC_DEBUG("DAVE Apps initialization success\n");
 323:C:/Workspaces/DAVE-4.4.2-64Bit/GarbageCollector/XMC4200_GC/Dave/Generated/PIN_INTERRUPT\pin_interrupt.h **** *   }
 324:C:/Workspaces/DAVE-4.4.2-64Bit/GarbageCollector/XMC4200_GC/Dave/Generated/PIN_INTERRUPT\pin_interrupt.h **** *   else
 325:C:/Workspaces/DAVE-4.4.2-64Bit/GarbageCollector/XMC4200_GC/Dave/Generated/PIN_INTERRUPT\pin_interrupt.h **** *   {
 326:C:/Workspaces/DAVE-4.4.2-64Bit/GarbageCollector/XMC4200_GC/Dave/Generated/PIN_INTERRUPT\pin_interrupt.h **** *     XMC_DEBUG(("DAVE Apps initialization failed with status %d\n", status));
 327:C:/Workspaces/DAVE-4.4.2-64Bit/GarbageCollector/XMC4200_GC/Dave/Generated/PIN_INTERRUPT\pin_interrupt.h **** *     while(1U)
 328:C:/Workspaces/DAVE-4.4.2-64Bit/GarbageCollector/XMC4200_GC/Dave/Generated/PIN_INTERRUPT\pin_interrupt.h **** *     {
 329:C:/Workspaces/DAVE-4.4.2-64Bit/GarbageCollector/XMC4200_GC/Dave/Generated/PIN_INTERRUPT\pin_interrupt.h **** *     }
 330:C:/Workspaces/DAVE-4.4.2-64Bit/GarbageCollector/XMC4200_GC/Dave/Generated/PIN_INTERRUPT\pin_interrupt.h **** *   }
 331:C:/Workspaces/DAVE-4.4.2-64Bit/GarbageCollector/XMC4200_GC/Dave/Generated/PIN_INTERRUPT\pin_interrupt.h **** *   //Placeholder for user application code. The while loop below can be replaced with user applica
 332:C:/Workspaces/DAVE-4.4.2-64Bit/GarbageCollector/XMC4200_GC/Dave/Generated/PIN_INTERRUPT\pin_interrupt.h **** *   while(1U)
 333:C:/Workspaces/DAVE-4.4.2-64Bit/GarbageCollector/XMC4200_GC/Dave/Generated/PIN_INTERRUPT\pin_interrupt.h **** *   {
 334:C:/Workspaces/DAVE-4.4.2-64Bit/GarbageCollector/XMC4200_GC/Dave/Generated/PIN_INTERRUPT\pin_interrupt.h **** *     pin_status = PIN_INTERRUPT_GetPinValue(&PIN_INTERRUPT_0);
 335:C:/Workspaces/DAVE-4.4.2-64Bit/GarbageCollector/XMC4200_GC/Dave/Generated/PIN_INTERRUPT\pin_interrupt.h **** *     if(pin_status == 1)
 336:C:/Workspaces/DAVE-4.4.2-64Bit/GarbageCollector/XMC4200_GC/Dave/Generated/PIN_INTERRUPT\pin_interrupt.h **** *     {
 337:C:/Workspaces/DAVE-4.4.2-64Bit/GarbageCollector/XMC4200_GC/Dave/Generated/PIN_INTERRUPT\pin_interrupt.h **** *       // Add application code here
 338:C:/Workspaces/DAVE-4.4.2-64Bit/GarbageCollector/XMC4200_GC/Dave/Generated/PIN_INTERRUPT\pin_interrupt.h **** *     }
 339:C:/Workspaces/DAVE-4.4.2-64Bit/GarbageCollector/XMC4200_GC/Dave/Generated/PIN_INTERRUPT\pin_interrupt.h **** *     else
 340:C:/Workspaces/DAVE-4.4.2-64Bit/GarbageCollector/XMC4200_GC/Dave/Generated/PIN_INTERRUPT\pin_interrupt.h **** *     {
 341:C:/Workspaces/DAVE-4.4.2-64Bit/GarbageCollector/XMC4200_GC/Dave/Generated/PIN_INTERRUPT\pin_interrupt.h **** *       // Add application code here
 342:C:/Workspaces/DAVE-4.4.2-64Bit/GarbageCollector/XMC4200_GC/Dave/Generated/PIN_INTERRUPT\pin_interrupt.h **** *     }
 343:C:/Workspaces/DAVE-4.4.2-64Bit/GarbageCollector/XMC4200_GC/Dave/Generated/PIN_INTERRUPT\pin_interrupt.h **** *   }
 344:C:/Workspaces/DAVE-4.4.2-64Bit/GarbageCollector/XMC4200_GC/Dave/Generated/PIN_INTERRUPT\pin_interrupt.h **** *   return (1);
 345:C:/Workspaces/DAVE-4.4.2-64Bit/GarbageCollector/XMC4200_GC/Dave/Generated/PIN_INTERRUPT\pin_interrupt.h **** * }
 346:C:/Workspaces/DAVE-4.4.2-64Bit/GarbageCollector/XMC4200_GC/Dave/Generated/PIN_INTERRUPT\pin_interrupt.h **** *  @endcode
 347:C:/Workspaces/DAVE-4.4.2-64Bit/GarbageCollector/XMC4200_GC/Dave/Generated/PIN_INTERRUPT\pin_interrupt.h **** */
 348:C:/Workspaces/DAVE-4.4.2-64Bit/GarbageCollector/XMC4200_GC/Dave/Generated/PIN_INTERRUPT\pin_interrupt.h **** __STATIC_INLINE uint32_t PIN_INTERRUPT_GetPinValue(const PIN_INTERRUPT_t *const handle)
 349:C:/Workspaces/DAVE-4.4.2-64Bit/GarbageCollector/XMC4200_GC/Dave/Generated/PIN_INTERRUPT\pin_interrupt.h **** {
 257              	 .loc 3 349 0
 258              	 .cfi_startproc
 259              	 
 260              	 
 261 0000 80B5     	 push {r7,lr}
 262              	.LCFI28:
 263              	 .cfi_def_cfa_offset 8
 264              	 .cfi_offset 7,-8
 265              	 .cfi_offset 14,-4
 266 0002 82B0     	 sub sp,sp,#8
 267              	.LCFI29:
 268              	 .cfi_def_cfa_offset 16
 269 0004 00AF     	 add r7,sp,#0
 270              	.LCFI30:
 271              	 .cfi_def_cfa_register 7
 272 0006 7860     	 str r0,[r7,#4]
 350:C:/Workspaces/DAVE-4.4.2-64Bit/GarbageCollector/XMC4200_GC/Dave/Generated/PIN_INTERRUPT\pin_interrupt.h ****   XMC_ASSERT("PIN_INTERRUPT_GetPinValue: Handler null pointer", handle != NULL);
 351:C:/Workspaces/DAVE-4.4.2-64Bit/GarbageCollector/XMC4200_GC/Dave/Generated/PIN_INTERRUPT\pin_interrupt.h ****   return (XMC_GPIO_GetInput(handle->port, handle->pin));
 273              	 .loc 3 351 0
 274 0008 7B68     	 ldr r3,[r7,#4]
 275 000a 5A68     	 ldr r2,[r3,#4]
 276 000c 7B68     	 ldr r3,[r7,#4]
 277 000e 93F82130 	 ldrb r3,[r3,#33]
 278 0012 1046     	 mov r0,r2
 279 0014 1946     	 mov r1,r3
 280 0016 FFF7FEFF 	 bl XMC_GPIO_GetInput
 281 001a 0346     	 mov r3,r0
 352:C:/Workspaces/DAVE-4.4.2-64Bit/GarbageCollector/XMC4200_GC/Dave/Generated/PIN_INTERRUPT\pin_interrupt.h **** }
 282              	 .loc 3 352 0
 283 001c 1846     	 mov r0,r3
 284 001e 0837     	 adds r7,r7,#8
 285              	.LCFI31:
 286              	 .cfi_def_cfa_offset 8
 287 0020 BD46     	 mov sp,r7
 288              	.LCFI32:
 289              	 .cfi_def_cfa_register 13
 290              	 
 291 0022 80BD     	 pop {r7,pc}
 292              	 .cfi_endproc
 293              	.LFE303:
 295              	 .section .text.XMC_SPI_CH_SetBitOrderLsbFirst,"ax",%progbits
 296              	 .align 2
 297              	 .thumb
 298              	 .thumb_func
 300              	XMC_SPI_CH_SetBitOrderLsbFirst:
 301              	.LFB373:
 302              	 .file 4 "C:/Workspaces/DAVE-4.4.2-64Bit/GarbageCollector/XMC4200_GC/Libraries/XMCLib/inc/xmc_spi.h"
   1:C:/Workspaces/DAVE-4.4.2-64Bit/GarbageCollector/XMC4200_GC/Libraries/XMCLib/inc\xmc_spi.h **** /**
   2:C:/Workspaces/DAVE-4.4.2-64Bit/GarbageCollector/XMC4200_GC/Libraries/XMCLib/inc\xmc_spi.h ****  * @file xmc_spi.h
   3:C:/Workspaces/DAVE-4.4.2-64Bit/GarbageCollector/XMC4200_GC/Libraries/XMCLib/inc\xmc_spi.h ****  * @date 2019-05-07
   4:C:/Workspaces/DAVE-4.4.2-64Bit/GarbageCollector/XMC4200_GC/Libraries/XMCLib/inc\xmc_spi.h ****  *
   5:C:/Workspaces/DAVE-4.4.2-64Bit/GarbageCollector/XMC4200_GC/Libraries/XMCLib/inc\xmc_spi.h ****  * @cond
   6:C:/Workspaces/DAVE-4.4.2-64Bit/GarbageCollector/XMC4200_GC/Libraries/XMCLib/inc\xmc_spi.h ****  **************************************************************************************************
   7:C:/Workspaces/DAVE-4.4.2-64Bit/GarbageCollector/XMC4200_GC/Libraries/XMCLib/inc\xmc_spi.h ****  * XMClib v2.1.24 - XMC Peripheral Driver Library 
   8:C:/Workspaces/DAVE-4.4.2-64Bit/GarbageCollector/XMC4200_GC/Libraries/XMCLib/inc\xmc_spi.h ****  *
   9:C:/Workspaces/DAVE-4.4.2-64Bit/GarbageCollector/XMC4200_GC/Libraries/XMCLib/inc\xmc_spi.h ****  * Copyright (c) 2015-2019, Infineon Technologies AG
  10:C:/Workspaces/DAVE-4.4.2-64Bit/GarbageCollector/XMC4200_GC/Libraries/XMCLib/inc\xmc_spi.h ****  * All rights reserved.                        
  11:C:/Workspaces/DAVE-4.4.2-64Bit/GarbageCollector/XMC4200_GC/Libraries/XMCLib/inc\xmc_spi.h ****  *                                             
  12:C:/Workspaces/DAVE-4.4.2-64Bit/GarbageCollector/XMC4200_GC/Libraries/XMCLib/inc\xmc_spi.h ****  * Redistribution and use in source and binary forms, with or without modification,are permitted pr
  13:C:/Workspaces/DAVE-4.4.2-64Bit/GarbageCollector/XMC4200_GC/Libraries/XMCLib/inc\xmc_spi.h ****  * following conditions are met:   
  14:C:/Workspaces/DAVE-4.4.2-64Bit/GarbageCollector/XMC4200_GC/Libraries/XMCLib/inc\xmc_spi.h ****  *                                                                              
  15:C:/Workspaces/DAVE-4.4.2-64Bit/GarbageCollector/XMC4200_GC/Libraries/XMCLib/inc\xmc_spi.h ****  * Redistributions of source code must retain the above copyright notice, this list of conditions a
  16:C:/Workspaces/DAVE-4.4.2-64Bit/GarbageCollector/XMC4200_GC/Libraries/XMCLib/inc\xmc_spi.h ****  * disclaimer.                        
  17:C:/Workspaces/DAVE-4.4.2-64Bit/GarbageCollector/XMC4200_GC/Libraries/XMCLib/inc\xmc_spi.h ****  * 
  18:C:/Workspaces/DAVE-4.4.2-64Bit/GarbageCollector/XMC4200_GC/Libraries/XMCLib/inc\xmc_spi.h ****  * Redistributions in binary form must reproduce the above copyright notice, this list of condition
  19:C:/Workspaces/DAVE-4.4.2-64Bit/GarbageCollector/XMC4200_GC/Libraries/XMCLib/inc\xmc_spi.h ****  * disclaimer in the documentation and/or other materials provided with the distribution.          
  20:C:/Workspaces/DAVE-4.4.2-64Bit/GarbageCollector/XMC4200_GC/Libraries/XMCLib/inc\xmc_spi.h ****  * 
  21:C:/Workspaces/DAVE-4.4.2-64Bit/GarbageCollector/XMC4200_GC/Libraries/XMCLib/inc\xmc_spi.h ****  * Neither the name of the copyright holders nor the names of its contributors may be used to endor
  22:C:/Workspaces/DAVE-4.4.2-64Bit/GarbageCollector/XMC4200_GC/Libraries/XMCLib/inc\xmc_spi.h ****  * products derived from this software without specific prior written permission.                  
  23:C:/Workspaces/DAVE-4.4.2-64Bit/GarbageCollector/XMC4200_GC/Libraries/XMCLib/inc\xmc_spi.h ****  *                                                                              
  24:C:/Workspaces/DAVE-4.4.2-64Bit/GarbageCollector/XMC4200_GC/Libraries/XMCLib/inc\xmc_spi.h ****  * THIS SOFTWARE IS PROVIDED BY THE COPYRIGHT HOLDERS AND CONTRIBUTORS "AS IS" AND ANY EXPRESS OR I
  25:C:/Workspaces/DAVE-4.4.2-64Bit/GarbageCollector/XMC4200_GC/Libraries/XMCLib/inc\xmc_spi.h ****  * INCLUDING, BUT NOT LIMITED TO, THE IMPLIED WARRANTIES OF MERCHANTABILITY AND FITNESS FOR A PARTI
  26:C:/Workspaces/DAVE-4.4.2-64Bit/GarbageCollector/XMC4200_GC/Libraries/XMCLib/inc\xmc_spi.h ****  * DISCLAIMED. IN NO EVENT SHALL THE COPYRIGHT HOLDER OR CONTRIBUTORS BE LIABLE  FOR ANY DIRECT, IN
  27:C:/Workspaces/DAVE-4.4.2-64Bit/GarbageCollector/XMC4200_GC/Libraries/XMCLib/inc\xmc_spi.h ****  * SPECIAL, EXEMPLARY, OR CONSEQUENTIAL DAMAGES (INCLUDING, BUT NOT LIMITED TO, PROCUREMENT OF SUBS
  28:C:/Workspaces/DAVE-4.4.2-64Bit/GarbageCollector/XMC4200_GC/Libraries/XMCLib/inc\xmc_spi.h ****  * SERVICES; LOSS OF USE, DATA, OR PROFITS; OR BUSINESS INTERRUPTION) HOWEVER CAUSED AND ON ANY THE
  29:C:/Workspaces/DAVE-4.4.2-64Bit/GarbageCollector/XMC4200_GC/Libraries/XMCLib/inc\xmc_spi.h ****  * WHETHER IN CONTRACT, STRICT LIABILITY,OR TORT (INCLUDING NEGLIGENCE OR OTHERWISE) ARISING IN ANY
  30:C:/Workspaces/DAVE-4.4.2-64Bit/GarbageCollector/XMC4200_GC/Libraries/XMCLib/inc\xmc_spi.h ****  * OF THIS SOFTWARE, EVEN IF ADVISED OF THE POSSIBILITY OF SUCH DAMAGE.                            
  31:C:/Workspaces/DAVE-4.4.2-64Bit/GarbageCollector/XMC4200_GC/Libraries/XMCLib/inc\xmc_spi.h ****  *                                                                              
  32:C:/Workspaces/DAVE-4.4.2-64Bit/GarbageCollector/XMC4200_GC/Libraries/XMCLib/inc\xmc_spi.h ****  * To improve the quality of the software, users are encouraged to share modifications, enhancement
  33:C:/Workspaces/DAVE-4.4.2-64Bit/GarbageCollector/XMC4200_GC/Libraries/XMCLib/inc\xmc_spi.h ****  * Infineon Technologies AG dave@infineon.com).                                                    
  34:C:/Workspaces/DAVE-4.4.2-64Bit/GarbageCollector/XMC4200_GC/Libraries/XMCLib/inc\xmc_spi.h ****  **************************************************************************************************
  35:C:/Workspaces/DAVE-4.4.2-64Bit/GarbageCollector/XMC4200_GC/Libraries/XMCLib/inc\xmc_spi.h ****  *
  36:C:/Workspaces/DAVE-4.4.2-64Bit/GarbageCollector/XMC4200_GC/Libraries/XMCLib/inc\xmc_spi.h ****  * Change History
  37:C:/Workspaces/DAVE-4.4.2-64Bit/GarbageCollector/XMC4200_GC/Libraries/XMCLib/inc\xmc_spi.h ****  * --------------
  38:C:/Workspaces/DAVE-4.4.2-64Bit/GarbageCollector/XMC4200_GC/Libraries/XMCLib/inc\xmc_spi.h ****  *
  39:C:/Workspaces/DAVE-4.4.2-64Bit/GarbageCollector/XMC4200_GC/Libraries/XMCLib/inc\xmc_spi.h ****  * 2015-02-20:
  40:C:/Workspaces/DAVE-4.4.2-64Bit/GarbageCollector/XMC4200_GC/Libraries/XMCLib/inc\xmc_spi.h ****  *     - Initial
  41:C:/Workspaces/DAVE-4.4.2-64Bit/GarbageCollector/XMC4200_GC/Libraries/XMCLib/inc\xmc_spi.h ****  *   
  42:C:/Workspaces/DAVE-4.4.2-64Bit/GarbageCollector/XMC4200_GC/Libraries/XMCLib/inc\xmc_spi.h ****  * 2015-05-20:
  43:C:/Workspaces/DAVE-4.4.2-64Bit/GarbageCollector/XMC4200_GC/Libraries/XMCLib/inc\xmc_spi.h ****  *     - Documentation improved <br>
  44:C:/Workspaces/DAVE-4.4.2-64Bit/GarbageCollector/XMC4200_GC/Libraries/XMCLib/inc\xmc_spi.h ****  *     - Added XMC_SPI_CH_SetSlaveSelectDelay(), XMC_SPI_CH_TriggerServiceRequest() and 
  45:C:/Workspaces/DAVE-4.4.2-64Bit/GarbageCollector/XMC4200_GC/Libraries/XMCLib/inc\xmc_spi.h ****  *       XMC_SPI_CH_SelectInterruptNodePointer() <br>
  46:C:/Workspaces/DAVE-4.4.2-64Bit/GarbageCollector/XMC4200_GC/Libraries/XMCLib/inc\xmc_spi.h ****  *     - Added XMC_SPI_CH_SetInterwordDelaySCLK() <br>
  47:C:/Workspaces/DAVE-4.4.2-64Bit/GarbageCollector/XMC4200_GC/Libraries/XMCLib/inc\xmc_spi.h ****  *
  48:C:/Workspaces/DAVE-4.4.2-64Bit/GarbageCollector/XMC4200_GC/Libraries/XMCLib/inc\xmc_spi.h ****  * 2015-06-20:
  49:C:/Workspaces/DAVE-4.4.2-64Bit/GarbageCollector/XMC4200_GC/Libraries/XMCLib/inc\xmc_spi.h ****  *     - Removed version macros and declaration of GetDriverVersion API <br>
  50:C:/Workspaces/DAVE-4.4.2-64Bit/GarbageCollector/XMC4200_GC/Libraries/XMCLib/inc\xmc_spi.h ****  *
  51:C:/Workspaces/DAVE-4.4.2-64Bit/GarbageCollector/XMC4200_GC/Libraries/XMCLib/inc\xmc_spi.h ****  * 2015-08-24:
  52:C:/Workspaces/DAVE-4.4.2-64Bit/GarbageCollector/XMC4200_GC/Libraries/XMCLib/inc\xmc_spi.h ****  *     - Added APIs for enabling/disabling delay compensation XMC_SPI_CH_DisableDelayCompensation()
  53:C:/Workspaces/DAVE-4.4.2-64Bit/GarbageCollector/XMC4200_GC/Libraries/XMCLib/inc\xmc_spi.h ****  *       XMC_SPI_CH_EnableDelayCompensation() <br>
  54:C:/Workspaces/DAVE-4.4.2-64Bit/GarbageCollector/XMC4200_GC/Libraries/XMCLib/inc\xmc_spi.h ****  *
  55:C:/Workspaces/DAVE-4.4.2-64Bit/GarbageCollector/XMC4200_GC/Libraries/XMCLib/inc\xmc_spi.h ****  * 2015-08-27:
  56:C:/Workspaces/DAVE-4.4.2-64Bit/GarbageCollector/XMC4200_GC/Libraries/XMCLib/inc\xmc_spi.h ****  *     - Added APIs for external input for BRG configuration:XMC_SPI_CH_ConfigExternalInputSignalTo
  57:C:/Workspaces/DAVE-4.4.2-64Bit/GarbageCollector/XMC4200_GC/Libraries/XMCLib/inc\xmc_spi.h ****  *
  58:C:/Workspaces/DAVE-4.4.2-64Bit/GarbageCollector/XMC4200_GC/Libraries/XMCLib/inc\xmc_spi.h ****  * 2015-09-01:
  59:C:/Workspaces/DAVE-4.4.2-64Bit/GarbageCollector/XMC4200_GC/Libraries/XMCLib/inc\xmc_spi.h ****  *     - Modified XMC_SPI_CH_SetInputSource() for avoiding complete DXCR register overwriting. <br>
  60:C:/Workspaces/DAVE-4.4.2-64Bit/GarbageCollector/XMC4200_GC/Libraries/XMCLib/inc\xmc_spi.h ****  *     - Modified XMC_SPI_CH_EVENT_t enum for supporting XMC_SPI_CH_EnableEvent() and XMC_SPI_CH_Di
  61:C:/Workspaces/DAVE-4.4.2-64Bit/GarbageCollector/XMC4200_GC/Libraries/XMCLib/inc\xmc_spi.h ****  *       for supporting multiple events configuration <br>
  62:C:/Workspaces/DAVE-4.4.2-64Bit/GarbageCollector/XMC4200_GC/Libraries/XMCLib/inc\xmc_spi.h ****  *
  63:C:/Workspaces/DAVE-4.4.2-64Bit/GarbageCollector/XMC4200_GC/Libraries/XMCLib/inc\xmc_spi.h ****  * 2015-09-08:
  64:C:/Workspaces/DAVE-4.4.2-64Bit/GarbageCollector/XMC4200_GC/Libraries/XMCLib/inc\xmc_spi.h ****  *     - Adding API for configuring the receiving clock phase in the slave:XMC_SPI_CH_DataLatchedIn
  65:C:/Workspaces/DAVE-4.4.2-64Bit/GarbageCollector/XMC4200_GC/Libraries/XMCLib/inc\xmc_spi.h ****  *
  66:C:/Workspaces/DAVE-4.4.2-64Bit/GarbageCollector/XMC4200_GC/Libraries/XMCLib/inc\xmc_spi.h ****  * 2016-04-10:
  67:C:/Workspaces/DAVE-4.4.2-64Bit/GarbageCollector/XMC4200_GC/Libraries/XMCLib/inc\xmc_spi.h ****  *     - Added an API for configuring the transmit mode:XMC_SPI_CH_SetTransmitMode() <br>
  68:C:/Workspaces/DAVE-4.4.2-64Bit/GarbageCollector/XMC4200_GC/Libraries/XMCLib/inc\xmc_spi.h ****  *
  69:C:/Workspaces/DAVE-4.4.2-64Bit/GarbageCollector/XMC4200_GC/Libraries/XMCLib/inc\xmc_spi.h ****  * 2016-05-20:
  70:C:/Workspaces/DAVE-4.4.2-64Bit/GarbageCollector/XMC4200_GC/Libraries/XMCLib/inc\xmc_spi.h ****  *     - Added XMC_SPI_CH_EnableDataTransmission() and XMC_SPI_CH_DisableDataTransmission()
  71:C:/Workspaces/DAVE-4.4.2-64Bit/GarbageCollector/XMC4200_GC/Libraries/XMCLib/inc\xmc_spi.h ****  * 
  72:C:/Workspaces/DAVE-4.4.2-64Bit/GarbageCollector/XMC4200_GC/Libraries/XMCLib/inc\xmc_spi.h ****  * 2019-03-30:
  73:C:/Workspaces/DAVE-4.4.2-64Bit/GarbageCollector/XMC4200_GC/Libraries/XMCLib/inc\xmc_spi.h ****  *     - Fix XMC_SPI_CH_MODE_STANDARD_HALFDUPLEX macro value
  74:C:/Workspaces/DAVE-4.4.2-64Bit/GarbageCollector/XMC4200_GC/Libraries/XMCLib/inc\xmc_spi.h ****  * 
  75:C:/Workspaces/DAVE-4.4.2-64Bit/GarbageCollector/XMC4200_GC/Libraries/XMCLib/inc\xmc_spi.h ****  * 2019-05-07:
  76:C:/Workspaces/DAVE-4.4.2-64Bit/GarbageCollector/XMC4200_GC/Libraries/XMCLib/inc\xmc_spi.h ****  *     - Added normal_divider_mode to XMC_SPI_CH_CONFIG_t configuration structure.
  77:C:/Workspaces/DAVE-4.4.2-64Bit/GarbageCollector/XMC4200_GC/Libraries/XMCLib/inc\xmc_spi.h ****  *       It selects normal divider mode for baudrate generator instead of default fractional divide
  78:C:/Workspaces/DAVE-4.4.2-64Bit/GarbageCollector/XMC4200_GC/Libraries/XMCLib/inc\xmc_spi.h ****  *     - Added XMC_SPI_CH_SetBaudrateEx()
  79:C:/Workspaces/DAVE-4.4.2-64Bit/GarbageCollector/XMC4200_GC/Libraries/XMCLib/inc\xmc_spi.h ****  *
  80:C:/Workspaces/DAVE-4.4.2-64Bit/GarbageCollector/XMC4200_GC/Libraries/XMCLib/inc\xmc_spi.h ****  * @endcond 
  81:C:/Workspaces/DAVE-4.4.2-64Bit/GarbageCollector/XMC4200_GC/Libraries/XMCLib/inc\xmc_spi.h ****  *
  82:C:/Workspaces/DAVE-4.4.2-64Bit/GarbageCollector/XMC4200_GC/Libraries/XMCLib/inc\xmc_spi.h ****  */
  83:C:/Workspaces/DAVE-4.4.2-64Bit/GarbageCollector/XMC4200_GC/Libraries/XMCLib/inc\xmc_spi.h **** 
  84:C:/Workspaces/DAVE-4.4.2-64Bit/GarbageCollector/XMC4200_GC/Libraries/XMCLib/inc\xmc_spi.h **** #ifndef XMC_SPI_H
  85:C:/Workspaces/DAVE-4.4.2-64Bit/GarbageCollector/XMC4200_GC/Libraries/XMCLib/inc\xmc_spi.h **** #define XMC_SPI_H
  86:C:/Workspaces/DAVE-4.4.2-64Bit/GarbageCollector/XMC4200_GC/Libraries/XMCLib/inc\xmc_spi.h **** 
  87:C:/Workspaces/DAVE-4.4.2-64Bit/GarbageCollector/XMC4200_GC/Libraries/XMCLib/inc\xmc_spi.h **** /**************************************************************************************************
  88:C:/Workspaces/DAVE-4.4.2-64Bit/GarbageCollector/XMC4200_GC/Libraries/XMCLib/inc\xmc_spi.h ****  * HEADER FILES
  89:C:/Workspaces/DAVE-4.4.2-64Bit/GarbageCollector/XMC4200_GC/Libraries/XMCLib/inc\xmc_spi.h ****  **************************************************************************************************
  90:C:/Workspaces/DAVE-4.4.2-64Bit/GarbageCollector/XMC4200_GC/Libraries/XMCLib/inc\xmc_spi.h **** #include "xmc_usic.h"
  91:C:/Workspaces/DAVE-4.4.2-64Bit/GarbageCollector/XMC4200_GC/Libraries/XMCLib/inc\xmc_spi.h **** 
  92:C:/Workspaces/DAVE-4.4.2-64Bit/GarbageCollector/XMC4200_GC/Libraries/XMCLib/inc\xmc_spi.h **** /**
  93:C:/Workspaces/DAVE-4.4.2-64Bit/GarbageCollector/XMC4200_GC/Libraries/XMCLib/inc\xmc_spi.h ****  * @addtogroup XMClib XMC Peripheral Library
  94:C:/Workspaces/DAVE-4.4.2-64Bit/GarbageCollector/XMC4200_GC/Libraries/XMCLib/inc\xmc_spi.h ****  * @{
  95:C:/Workspaces/DAVE-4.4.2-64Bit/GarbageCollector/XMC4200_GC/Libraries/XMCLib/inc\xmc_spi.h ****  */
  96:C:/Workspaces/DAVE-4.4.2-64Bit/GarbageCollector/XMC4200_GC/Libraries/XMCLib/inc\xmc_spi.h **** 
  97:C:/Workspaces/DAVE-4.4.2-64Bit/GarbageCollector/XMC4200_GC/Libraries/XMCLib/inc\xmc_spi.h **** /**
  98:C:/Workspaces/DAVE-4.4.2-64Bit/GarbageCollector/XMC4200_GC/Libraries/XMCLib/inc\xmc_spi.h ****  * @addtogroup SPI
  99:C:/Workspaces/DAVE-4.4.2-64Bit/GarbageCollector/XMC4200_GC/Libraries/XMCLib/inc\xmc_spi.h ****  * @brief Synchronous serial channel driver for SPI-like communication.
 100:C:/Workspaces/DAVE-4.4.2-64Bit/GarbageCollector/XMC4200_GC/Libraries/XMCLib/inc\xmc_spi.h ****  * 
 101:C:/Workspaces/DAVE-4.4.2-64Bit/GarbageCollector/XMC4200_GC/Libraries/XMCLib/inc\xmc_spi.h ****  * The SPI driver uses Universal Serial Interface Channel(USIC) module. 
 102:C:/Workspaces/DAVE-4.4.2-64Bit/GarbageCollector/XMC4200_GC/Libraries/XMCLib/inc\xmc_spi.h ****  * The USIC module supports multiple data lines for SPI communication. \n
 103:C:/Workspaces/DAVE-4.4.2-64Bit/GarbageCollector/XMC4200_GC/Libraries/XMCLib/inc\xmc_spi.h ****  * -# Full duplex communication with 2 separate lines for transmission and reception.
 104:C:/Workspaces/DAVE-4.4.2-64Bit/GarbageCollector/XMC4200_GC/Libraries/XMCLib/inc\xmc_spi.h ****  * -# Half duplex communication with 1 common line shared for transmission and reception.
 105:C:/Workspaces/DAVE-4.4.2-64Bit/GarbageCollector/XMC4200_GC/Libraries/XMCLib/inc\xmc_spi.h ****  * -# Dual mode communication with 2 common lines shared for transmission and reception.
 106:C:/Workspaces/DAVE-4.4.2-64Bit/GarbageCollector/XMC4200_GC/Libraries/XMCLib/inc\xmc_spi.h ****  * -# Quad mode communication with 4 common lines shared for transmission and reception.<br><br>
 107:C:/Workspaces/DAVE-4.4.2-64Bit/GarbageCollector/XMC4200_GC/Libraries/XMCLib/inc\xmc_spi.h ****  * 
 108:C:/Workspaces/DAVE-4.4.2-64Bit/GarbageCollector/XMC4200_GC/Libraries/XMCLib/inc\xmc_spi.h ****  * SPI driver provides structures, enumerations and APIs for configuring the USIC channel for SPI c
 109:C:/Workspaces/DAVE-4.4.2-64Bit/GarbageCollector/XMC4200_GC/Libraries/XMCLib/inc\xmc_spi.h ****  * and also for data transaction.<br>
 110:C:/Workspaces/DAVE-4.4.2-64Bit/GarbageCollector/XMC4200_GC/Libraries/XMCLib/inc\xmc_spi.h ****  * SPI driver features:
 111:C:/Workspaces/DAVE-4.4.2-64Bit/GarbageCollector/XMC4200_GC/Libraries/XMCLib/inc\xmc_spi.h ****  * -# Configuration structure XMC_SPI_CH_CONFIG_t and SPI initialization function XMC_SPI_CH_Init()
 112:C:/Workspaces/DAVE-4.4.2-64Bit/GarbageCollector/XMC4200_GC/Libraries/XMCLib/inc\xmc_spi.h ****  * -# Allows configuration of protocol word and frame length using XMC_SPI_CH_SetWordLength(), XMC_
 113:C:/Workspaces/DAVE-4.4.2-64Bit/GarbageCollector/XMC4200_GC/Libraries/XMCLib/inc\xmc_spi.h ****  * -# Allows manipulation of data frame at runtime using XMC_SPI_CH_EnableSOF(), XMC_SPI_CH_EnableE
 114:C:/Workspaces/DAVE-4.4.2-64Bit/GarbageCollector/XMC4200_GC/Libraries/XMCLib/inc\xmc_spi.h ****  XMC_SPI_CH_EnableSlaveSelect(), XMC_SPI_CH_DisableSlaveSelect()
 115:C:/Workspaces/DAVE-4.4.2-64Bit/GarbageCollector/XMC4200_GC/Libraries/XMCLib/inc\xmc_spi.h ****  * -# Provides APIs for transmitting data and receiving data using XMC_SPI_CH_Transmit(), XMC_SPI_C
 116:C:/Workspaces/DAVE-4.4.2-64Bit/GarbageCollector/XMC4200_GC/Libraries/XMCLib/inc\xmc_spi.h ****  * -# Allows configuration of shift clock using XMC_SPI_CH_ConfigureShiftClockOutput()
 117:C:/Workspaces/DAVE-4.4.2-64Bit/GarbageCollector/XMC4200_GC/Libraries/XMCLib/inc\xmc_spi.h ****  * -# Provides enumeration of SPI protocol events using @ref XMC_SPI_CH_STATUS_FLAG_t
 118:C:/Workspaces/DAVE-4.4.2-64Bit/GarbageCollector/XMC4200_GC/Libraries/XMCLib/inc\xmc_spi.h ****  * @{
 119:C:/Workspaces/DAVE-4.4.2-64Bit/GarbageCollector/XMC4200_GC/Libraries/XMCLib/inc\xmc_spi.h ****  */
 120:C:/Workspaces/DAVE-4.4.2-64Bit/GarbageCollector/XMC4200_GC/Libraries/XMCLib/inc\xmc_spi.h **** 
 121:C:/Workspaces/DAVE-4.4.2-64Bit/GarbageCollector/XMC4200_GC/Libraries/XMCLib/inc\xmc_spi.h **** /**************************************************************************************************
 122:C:/Workspaces/DAVE-4.4.2-64Bit/GarbageCollector/XMC4200_GC/Libraries/XMCLib/inc\xmc_spi.h ****  * MACROS
 123:C:/Workspaces/DAVE-4.4.2-64Bit/GarbageCollector/XMC4200_GC/Libraries/XMCLib/inc\xmc_spi.h ****  **************************************************************************************************
 124:C:/Workspaces/DAVE-4.4.2-64Bit/GarbageCollector/XMC4200_GC/Libraries/XMCLib/inc\xmc_spi.h **** 
 125:C:/Workspaces/DAVE-4.4.2-64Bit/GarbageCollector/XMC4200_GC/Libraries/XMCLib/inc\xmc_spi.h **** #if defined(USIC0)
 126:C:/Workspaces/DAVE-4.4.2-64Bit/GarbageCollector/XMC4200_GC/Libraries/XMCLib/inc\xmc_spi.h **** #define XMC_SPI0_CH0 XMC_USIC0_CH0 /**< SPI0 channel 0 base address */
 127:C:/Workspaces/DAVE-4.4.2-64Bit/GarbageCollector/XMC4200_GC/Libraries/XMCLib/inc\xmc_spi.h **** #define XMC_SPI0_CH1 XMC_USIC0_CH1 /**< SPI0 channel 1 base address */
 128:C:/Workspaces/DAVE-4.4.2-64Bit/GarbageCollector/XMC4200_GC/Libraries/XMCLib/inc\xmc_spi.h **** #endif
 129:C:/Workspaces/DAVE-4.4.2-64Bit/GarbageCollector/XMC4200_GC/Libraries/XMCLib/inc\xmc_spi.h **** 
 130:C:/Workspaces/DAVE-4.4.2-64Bit/GarbageCollector/XMC4200_GC/Libraries/XMCLib/inc\xmc_spi.h **** #if defined(USIC1)
 131:C:/Workspaces/DAVE-4.4.2-64Bit/GarbageCollector/XMC4200_GC/Libraries/XMCLib/inc\xmc_spi.h **** #define XMC_SPI1_CH0 XMC_USIC1_CH0 /**< SPI1 channel 0 base address */
 132:C:/Workspaces/DAVE-4.4.2-64Bit/GarbageCollector/XMC4200_GC/Libraries/XMCLib/inc\xmc_spi.h **** #define XMC_SPI1_CH1 XMC_USIC1_CH1 /**< SPI1 channel 1 base address */
 133:C:/Workspaces/DAVE-4.4.2-64Bit/GarbageCollector/XMC4200_GC/Libraries/XMCLib/inc\xmc_spi.h **** #endif
 134:C:/Workspaces/DAVE-4.4.2-64Bit/GarbageCollector/XMC4200_GC/Libraries/XMCLib/inc\xmc_spi.h **** 
 135:C:/Workspaces/DAVE-4.4.2-64Bit/GarbageCollector/XMC4200_GC/Libraries/XMCLib/inc\xmc_spi.h **** #if defined(USIC2)
 136:C:/Workspaces/DAVE-4.4.2-64Bit/GarbageCollector/XMC4200_GC/Libraries/XMCLib/inc\xmc_spi.h **** #define XMC_SPI2_CH0 XMC_USIC2_CH0 /**< SPI2 channel 0 base address */
 137:C:/Workspaces/DAVE-4.4.2-64Bit/GarbageCollector/XMC4200_GC/Libraries/XMCLib/inc\xmc_spi.h **** #define XMC_SPI2_CH1 XMC_USIC2_CH1 /**< SPI2 channel 1 base address */
 138:C:/Workspaces/DAVE-4.4.2-64Bit/GarbageCollector/XMC4200_GC/Libraries/XMCLib/inc\xmc_spi.h **** #endif
 139:C:/Workspaces/DAVE-4.4.2-64Bit/GarbageCollector/XMC4200_GC/Libraries/XMCLib/inc\xmc_spi.h **** 
 140:C:/Workspaces/DAVE-4.4.2-64Bit/GarbageCollector/XMC4200_GC/Libraries/XMCLib/inc\xmc_spi.h **** /**************************************************************************************************
 141:C:/Workspaces/DAVE-4.4.2-64Bit/GarbageCollector/XMC4200_GC/Libraries/XMCLib/inc\xmc_spi.h ****  * ENUMS
 142:C:/Workspaces/DAVE-4.4.2-64Bit/GarbageCollector/XMC4200_GC/Libraries/XMCLib/inc\xmc_spi.h ****  **************************************************************************************************
 143:C:/Workspaces/DAVE-4.4.2-64Bit/GarbageCollector/XMC4200_GC/Libraries/XMCLib/inc\xmc_spi.h **** 
 144:C:/Workspaces/DAVE-4.4.2-64Bit/GarbageCollector/XMC4200_GC/Libraries/XMCLib/inc\xmc_spi.h **** /**
 145:C:/Workspaces/DAVE-4.4.2-64Bit/GarbageCollector/XMC4200_GC/Libraries/XMCLib/inc\xmc_spi.h ****  * Defines return status of SPI driver APIs
 146:C:/Workspaces/DAVE-4.4.2-64Bit/GarbageCollector/XMC4200_GC/Libraries/XMCLib/inc\xmc_spi.h ****  */
 147:C:/Workspaces/DAVE-4.4.2-64Bit/GarbageCollector/XMC4200_GC/Libraries/XMCLib/inc\xmc_spi.h **** typedef enum XMC_SPI_CH_STATUS
 148:C:/Workspaces/DAVE-4.4.2-64Bit/GarbageCollector/XMC4200_GC/Libraries/XMCLib/inc\xmc_spi.h **** {
 149:C:/Workspaces/DAVE-4.4.2-64Bit/GarbageCollector/XMC4200_GC/Libraries/XMCLib/inc\xmc_spi.h ****   XMC_SPI_CH_STATUS_OK,    /**< Status of the Module: OK */
 150:C:/Workspaces/DAVE-4.4.2-64Bit/GarbageCollector/XMC4200_GC/Libraries/XMCLib/inc\xmc_spi.h ****   XMC_SPI_CH_STATUS_ERROR, /**< Status of the Module: ERROR */
 151:C:/Workspaces/DAVE-4.4.2-64Bit/GarbageCollector/XMC4200_GC/Libraries/XMCLib/inc\xmc_spi.h ****   XMC_SPI_CH_STATUS_BUSY   /**< The Module is busy */
 152:C:/Workspaces/DAVE-4.4.2-64Bit/GarbageCollector/XMC4200_GC/Libraries/XMCLib/inc\xmc_spi.h **** } XMC_SPI_CH_STATUS_t;
 153:C:/Workspaces/DAVE-4.4.2-64Bit/GarbageCollector/XMC4200_GC/Libraries/XMCLib/inc\xmc_spi.h **** /**
 154:C:/Workspaces/DAVE-4.4.2-64Bit/GarbageCollector/XMC4200_GC/Libraries/XMCLib/inc\xmc_spi.h ****  * Defines the SPI bus mode
 155:C:/Workspaces/DAVE-4.4.2-64Bit/GarbageCollector/XMC4200_GC/Libraries/XMCLib/inc\xmc_spi.h ****  */
 156:C:/Workspaces/DAVE-4.4.2-64Bit/GarbageCollector/XMC4200_GC/Libraries/XMCLib/inc\xmc_spi.h **** typedef enum XMC_SPI_CH_BUS_MODE
 157:C:/Workspaces/DAVE-4.4.2-64Bit/GarbageCollector/XMC4200_GC/Libraries/XMCLib/inc\xmc_spi.h **** {
 158:C:/Workspaces/DAVE-4.4.2-64Bit/GarbageCollector/XMC4200_GC/Libraries/XMCLib/inc\xmc_spi.h ****   XMC_SPI_CH_BUS_MODE_MASTER, /**< SPI Master */
 159:C:/Workspaces/DAVE-4.4.2-64Bit/GarbageCollector/XMC4200_GC/Libraries/XMCLib/inc\xmc_spi.h ****   XMC_SPI_CH_BUS_MODE_SLAVE   /**< SPI Slave */
 160:C:/Workspaces/DAVE-4.4.2-64Bit/GarbageCollector/XMC4200_GC/Libraries/XMCLib/inc\xmc_spi.h **** } XMC_SPI_CH_BUS_MODE_t;
 161:C:/Workspaces/DAVE-4.4.2-64Bit/GarbageCollector/XMC4200_GC/Libraries/XMCLib/inc\xmc_spi.h **** 
 162:C:/Workspaces/DAVE-4.4.2-64Bit/GarbageCollector/XMC4200_GC/Libraries/XMCLib/inc\xmc_spi.h **** /**
 163:C:/Workspaces/DAVE-4.4.2-64Bit/GarbageCollector/XMC4200_GC/Libraries/XMCLib/inc\xmc_spi.h ****  * Defines the Polarity of the slave select signals SELO[7:0] in relation to the master slave selec
 164:C:/Workspaces/DAVE-4.4.2-64Bit/GarbageCollector/XMC4200_GC/Libraries/XMCLib/inc\xmc_spi.h ****  */
 165:C:/Workspaces/DAVE-4.4.2-64Bit/GarbageCollector/XMC4200_GC/Libraries/XMCLib/inc\xmc_spi.h **** typedef enum XMC_SPI_CH_SLAVE_SEL_MSLS_INV
 166:C:/Workspaces/DAVE-4.4.2-64Bit/GarbageCollector/XMC4200_GC/Libraries/XMCLib/inc\xmc_spi.h **** {
 167:C:/Workspaces/DAVE-4.4.2-64Bit/GarbageCollector/XMC4200_GC/Libraries/XMCLib/inc\xmc_spi.h ****   XMC_SPI_CH_SLAVE_SEL_SAME_AS_MSLS = 0x0UL, /**< The SELO outputs have the same polarity as the MS
 168:C:/Workspaces/DAVE-4.4.2-64Bit/GarbageCollector/XMC4200_GC/Libraries/XMCLib/inc\xmc_spi.h ****                                                   (active high) */
 169:C:/Workspaces/DAVE-4.4.2-64Bit/GarbageCollector/XMC4200_GC/Libraries/XMCLib/inc\xmc_spi.h ****   XMC_SPI_CH_SLAVE_SEL_INV_TO_MSLS = 0x1UL << USIC_CH_PCR_SSCMode_SELINV_Pos /**< The SELO outputs 
 170:C:/Workspaces/DAVE-4.4.2-64Bit/GarbageCollector/XMC4200_GC/Libraries/XMCLib/inc\xmc_spi.h ****                                                                                   polarity to the M
 171:C:/Workspaces/DAVE-4.4.2-64Bit/GarbageCollector/XMC4200_GC/Libraries/XMCLib/inc\xmc_spi.h ****                                                                                   (active low)*/
 172:C:/Workspaces/DAVE-4.4.2-64Bit/GarbageCollector/XMC4200_GC/Libraries/XMCLib/inc\xmc_spi.h **** } XMC_SPI_CH_SLAVE_SEL_MSLS_INV_t;
 173:C:/Workspaces/DAVE-4.4.2-64Bit/GarbageCollector/XMC4200_GC/Libraries/XMCLib/inc\xmc_spi.h **** 
 174:C:/Workspaces/DAVE-4.4.2-64Bit/GarbageCollector/XMC4200_GC/Libraries/XMCLib/inc\xmc_spi.h **** /**
 175:C:/Workspaces/DAVE-4.4.2-64Bit/GarbageCollector/XMC4200_GC/Libraries/XMCLib/inc\xmc_spi.h ****  * Defines the Polarity of the data inputs.
 176:C:/Workspaces/DAVE-4.4.2-64Bit/GarbageCollector/XMC4200_GC/Libraries/XMCLib/inc\xmc_spi.h ****  */
 177:C:/Workspaces/DAVE-4.4.2-64Bit/GarbageCollector/XMC4200_GC/Libraries/XMCLib/inc\xmc_spi.h **** typedef enum XMC_SPI_CH_DATA_POLARITY
 178:C:/Workspaces/DAVE-4.4.2-64Bit/GarbageCollector/XMC4200_GC/Libraries/XMCLib/inc\xmc_spi.h **** {
 179:C:/Workspaces/DAVE-4.4.2-64Bit/GarbageCollector/XMC4200_GC/Libraries/XMCLib/inc\xmc_spi.h ****   XMC_SPI_CH_DATA_POLARITY_DIRECT = 0x0UL, /**< The polarity of the data line is not inverted */
 180:C:/Workspaces/DAVE-4.4.2-64Bit/GarbageCollector/XMC4200_GC/Libraries/XMCLib/inc\xmc_spi.h ****   XMC_SPI_CH_DATA_POLARITY_INVERT = 0x1UL << USIC_CH_DX2CR_DPOL_Pos /**< The polarity of the data l
 181:C:/Workspaces/DAVE-4.4.2-64Bit/GarbageCollector/XMC4200_GC/Libraries/XMCLib/inc\xmc_spi.h **** } XMC_SPI_CH_DATA_POLARITY_t;
 182:C:/Workspaces/DAVE-4.4.2-64Bit/GarbageCollector/XMC4200_GC/Libraries/XMCLib/inc\xmc_spi.h **** 
 183:C:/Workspaces/DAVE-4.4.2-64Bit/GarbageCollector/XMC4200_GC/Libraries/XMCLib/inc\xmc_spi.h **** /**
 184:C:/Workspaces/DAVE-4.4.2-64Bit/GarbageCollector/XMC4200_GC/Libraries/XMCLib/inc\xmc_spi.h ****  * Defines Slave Select lines
 185:C:/Workspaces/DAVE-4.4.2-64Bit/GarbageCollector/XMC4200_GC/Libraries/XMCLib/inc\xmc_spi.h ****  */
 186:C:/Workspaces/DAVE-4.4.2-64Bit/GarbageCollector/XMC4200_GC/Libraries/XMCLib/inc\xmc_spi.h **** typedef enum XMC_SPI_CH_SLAVE_SELECT
 187:C:/Workspaces/DAVE-4.4.2-64Bit/GarbageCollector/XMC4200_GC/Libraries/XMCLib/inc\xmc_spi.h **** {
 188:C:/Workspaces/DAVE-4.4.2-64Bit/GarbageCollector/XMC4200_GC/Libraries/XMCLib/inc\xmc_spi.h ****   XMC_SPI_CH_SLAVE_SELECT_0 = 1UL << USIC_CH_PCR_SSCMode_SELO_Pos,  /**< Slave Select line 0 */
 189:C:/Workspaces/DAVE-4.4.2-64Bit/GarbageCollector/XMC4200_GC/Libraries/XMCLib/inc\xmc_spi.h ****   XMC_SPI_CH_SLAVE_SELECT_1 = 2UL << USIC_CH_PCR_SSCMode_SELO_Pos,  /**< Slave Select line 1 */
 190:C:/Workspaces/DAVE-4.4.2-64Bit/GarbageCollector/XMC4200_GC/Libraries/XMCLib/inc\xmc_spi.h ****   XMC_SPI_CH_SLAVE_SELECT_2 = 4UL << USIC_CH_PCR_SSCMode_SELO_Pos,  /**< Slave Select line 2 */
 191:C:/Workspaces/DAVE-4.4.2-64Bit/GarbageCollector/XMC4200_GC/Libraries/XMCLib/inc\xmc_spi.h ****   XMC_SPI_CH_SLAVE_SELECT_3 = 8UL << USIC_CH_PCR_SSCMode_SELO_Pos,  /**< Slave Select line 3 */
 192:C:/Workspaces/DAVE-4.4.2-64Bit/GarbageCollector/XMC4200_GC/Libraries/XMCLib/inc\xmc_spi.h ****   XMC_SPI_CH_SLAVE_SELECT_4 = 16UL << USIC_CH_PCR_SSCMode_SELO_Pos, /**< Slave Select line 4 */
 193:C:/Workspaces/DAVE-4.4.2-64Bit/GarbageCollector/XMC4200_GC/Libraries/XMCLib/inc\xmc_spi.h ****   XMC_SPI_CH_SLAVE_SELECT_5 = 32UL << USIC_CH_PCR_SSCMode_SELO_Pos, /**< Slave Select line 5 */
 194:C:/Workspaces/DAVE-4.4.2-64Bit/GarbageCollector/XMC4200_GC/Libraries/XMCLib/inc\xmc_spi.h ****   XMC_SPI_CH_SLAVE_SELECT_6 = 64UL << USIC_CH_PCR_SSCMode_SELO_Pos, /**< Slave Select line 6 */
 195:C:/Workspaces/DAVE-4.4.2-64Bit/GarbageCollector/XMC4200_GC/Libraries/XMCLib/inc\xmc_spi.h ****   XMC_SPI_CH_SLAVE_SELECT_7 = 128UL << USIC_CH_PCR_SSCMode_SELO_Pos /**< Slave Select line 7 */
 196:C:/Workspaces/DAVE-4.4.2-64Bit/GarbageCollector/XMC4200_GC/Libraries/XMCLib/inc\xmc_spi.h **** } XMC_SPI_CH_SLAVE_SELECT_t;
 197:C:/Workspaces/DAVE-4.4.2-64Bit/GarbageCollector/XMC4200_GC/Libraries/XMCLib/inc\xmc_spi.h **** 
 198:C:/Workspaces/DAVE-4.4.2-64Bit/GarbageCollector/XMC4200_GC/Libraries/XMCLib/inc\xmc_spi.h **** /**
 199:C:/Workspaces/DAVE-4.4.2-64Bit/GarbageCollector/XMC4200_GC/Libraries/XMCLib/inc\xmc_spi.h ****  * Defines SPI specific events
 200:C:/Workspaces/DAVE-4.4.2-64Bit/GarbageCollector/XMC4200_GC/Libraries/XMCLib/inc\xmc_spi.h ****  */
 201:C:/Workspaces/DAVE-4.4.2-64Bit/GarbageCollector/XMC4200_GC/Libraries/XMCLib/inc\xmc_spi.h **** typedef enum XMC_SPI_CH_EVENT
 202:C:/Workspaces/DAVE-4.4.2-64Bit/GarbageCollector/XMC4200_GC/Libraries/XMCLib/inc\xmc_spi.h **** {
 203:C:/Workspaces/DAVE-4.4.2-64Bit/GarbageCollector/XMC4200_GC/Libraries/XMCLib/inc\xmc_spi.h ****   XMC_SPI_CH_EVENT_RECEIVE_START       = USIC_CH_CCR_RSIEN_Msk, /**< Receive start event */
 204:C:/Workspaces/DAVE-4.4.2-64Bit/GarbageCollector/XMC4200_GC/Libraries/XMCLib/inc\xmc_spi.h ****   XMC_SPI_CH_EVENT_DATA_LOST           = USIC_CH_CCR_DLIEN_Msk, /**< Data lost event */
 205:C:/Workspaces/DAVE-4.4.2-64Bit/GarbageCollector/XMC4200_GC/Libraries/XMCLib/inc\xmc_spi.h ****   XMC_SPI_CH_EVENT_TRANSMIT_SHIFT      = USIC_CH_CCR_TSIEN_Msk, /**< Transmit shift event */
 206:C:/Workspaces/DAVE-4.4.2-64Bit/GarbageCollector/XMC4200_GC/Libraries/XMCLib/inc\xmc_spi.h ****   XMC_SPI_CH_EVENT_TRANSMIT_BUFFER     = USIC_CH_CCR_TBIEN_Msk, /**< Transmit buffer event */
 207:C:/Workspaces/DAVE-4.4.2-64Bit/GarbageCollector/XMC4200_GC/Libraries/XMCLib/inc\xmc_spi.h ****   XMC_SPI_CH_EVENT_STANDARD_RECEIVE    = USIC_CH_CCR_RIEN_Msk,  /**< Receive event */
 208:C:/Workspaces/DAVE-4.4.2-64Bit/GarbageCollector/XMC4200_GC/Libraries/XMCLib/inc\xmc_spi.h ****   XMC_SPI_CH_EVENT_ALTERNATIVE_RECEIVE = USIC_CH_CCR_AIEN_Msk,  /**< Alternate receive event */
 209:C:/Workspaces/DAVE-4.4.2-64Bit/GarbageCollector/XMC4200_GC/Libraries/XMCLib/inc\xmc_spi.h ****   XMC_SPI_CH_EVENT_BAUD_RATE_GENERATOR = USIC_CH_CCR_BRGIEN_Msk, /**< Baudrate generator event */
 210:C:/Workspaces/DAVE-4.4.2-64Bit/GarbageCollector/XMC4200_GC/Libraries/XMCLib/inc\xmc_spi.h **** 
 211:C:/Workspaces/DAVE-4.4.2-64Bit/GarbageCollector/XMC4200_GC/Libraries/XMCLib/inc\xmc_spi.h ****   XMC_SPI_CH_EVENT_PARITY_ERROR = USIC_CH_PCR_SSCMode_PARIEN_Msk >> 13U,       /**< Parity error ev
 212:C:/Workspaces/DAVE-4.4.2-64Bit/GarbageCollector/XMC4200_GC/Libraries/XMCLib/inc\xmc_spi.h ****   XMC_SPI_CH_EVENT_MSLS_CHANGE =  USIC_CH_PCR_SSCMode_MSLSIEN_Msk >> 13U,      /**< Master slave se
 213:C:/Workspaces/DAVE-4.4.2-64Bit/GarbageCollector/XMC4200_GC/Libraries/XMCLib/inc\xmc_spi.h ****   XMC_SPI_CH_EVENT_DX2TIEN_ACTIVATED = USIC_CH_PCR_SSCMode_DX2TIEN_Msk >> 13U  /**< Slave select in
 214:C:/Workspaces/DAVE-4.4.2-64Bit/GarbageCollector/XMC4200_GC/Libraries/XMCLib/inc\xmc_spi.h **** } XMC_SPI_CH_EVENT_t;
 215:C:/Workspaces/DAVE-4.4.2-64Bit/GarbageCollector/XMC4200_GC/Libraries/XMCLib/inc\xmc_spi.h **** 
 216:C:/Workspaces/DAVE-4.4.2-64Bit/GarbageCollector/XMC4200_GC/Libraries/XMCLib/inc\xmc_spi.h **** /**
 217:C:/Workspaces/DAVE-4.4.2-64Bit/GarbageCollector/XMC4200_GC/Libraries/XMCLib/inc\xmc_spi.h ****  * Defines SPI event status
 218:C:/Workspaces/DAVE-4.4.2-64Bit/GarbageCollector/XMC4200_GC/Libraries/XMCLib/inc\xmc_spi.h ****  */
 219:C:/Workspaces/DAVE-4.4.2-64Bit/GarbageCollector/XMC4200_GC/Libraries/XMCLib/inc\xmc_spi.h **** typedef enum XMC_SPI_CH_STATUS_FLAG
 220:C:/Workspaces/DAVE-4.4.2-64Bit/GarbageCollector/XMC4200_GC/Libraries/XMCLib/inc\xmc_spi.h **** {
 221:C:/Workspaces/DAVE-4.4.2-64Bit/GarbageCollector/XMC4200_GC/Libraries/XMCLib/inc\xmc_spi.h ****   XMC_SPI_CH_STATUS_FLAG_MSLS = USIC_CH_PSR_SSCMode_MSLS_Msk,                          /**< Status 
 222:C:/Workspaces/DAVE-4.4.2-64Bit/GarbageCollector/XMC4200_GC/Libraries/XMCLib/inc\xmc_spi.h ****                                                                                             select(
 223:C:/Workspaces/DAVE-4.4.2-64Bit/GarbageCollector/XMC4200_GC/Libraries/XMCLib/inc\xmc_spi.h ****   XMC_SPI_CH_STATUS_FLAG_DX2S = USIC_CH_PSR_SSCMode_DX2S_Msk,                          /**< Status 
 224:C:/Workspaces/DAVE-4.4.2-64Bit/GarbageCollector/XMC4200_GC/Libraries/XMCLib/inc\xmc_spi.h ****                                                                                             input(D
 225:C:/Workspaces/DAVE-4.4.2-64Bit/GarbageCollector/XMC4200_GC/Libraries/XMCLib/inc\xmc_spi.h ****   XMC_SPI_CH_STATUS_FLAG_MSLS_EVENT_DETECTED = USIC_CH_PSR_SSCMode_MSLSEV_Msk,         /**< Status 
 226:C:/Workspaces/DAVE-4.4.2-64Bit/GarbageCollector/XMC4200_GC/Libraries/XMCLib/inc\xmc_spi.h ****                                                                                             output 
 227:C:/Workspaces/DAVE-4.4.2-64Bit/GarbageCollector/XMC4200_GC/Libraries/XMCLib/inc\xmc_spi.h ****   XMC_SPI_CH_STATUS_FLAG_DX2T_EVENT_DETECTED = USIC_CH_PSR_SSCMode_DX2TEV_Msk,         /**< Status 
 228:C:/Workspaces/DAVE-4.4.2-64Bit/GarbageCollector/XMC4200_GC/Libraries/XMCLib/inc\xmc_spi.h ****                                                                                             input s
 229:C:/Workspaces/DAVE-4.4.2-64Bit/GarbageCollector/XMC4200_GC/Libraries/XMCLib/inc\xmc_spi.h ****   XMC_SPI_CH_STATUS_FLAG_PARITY_ERROR_EVENT_DETECTED = USIC_CH_PSR_SSCMode_PARERR_Msk, /**< Indicat
 230:C:/Workspaces/DAVE-4.4.2-64Bit/GarbageCollector/XMC4200_GC/Libraries/XMCLib/inc\xmc_spi.h ****                                                                                             parity 
 231:C:/Workspaces/DAVE-4.4.2-64Bit/GarbageCollector/XMC4200_GC/Libraries/XMCLib/inc\xmc_spi.h ****   XMC_SPI_CH_STATUS_FLAG_RECEIVER_START_INDICATION = USIC_CH_PSR_SSCMode_RSIF_Msk,     /**< Status 
 232:C:/Workspaces/DAVE-4.4.2-64Bit/GarbageCollector/XMC4200_GC/Libraries/XMCLib/inc\xmc_spi.h ****                                                                                             event *
 233:C:/Workspaces/DAVE-4.4.2-64Bit/GarbageCollector/XMC4200_GC/Libraries/XMCLib/inc\xmc_spi.h ****   XMC_SPI_CH_STATUS_FLAG_DATA_LOST_INDICATION = USIC_CH_PSR_SSCMode_DLIF_Msk,          /**< Status 
 234:C:/Workspaces/DAVE-4.4.2-64Bit/GarbageCollector/XMC4200_GC/Libraries/XMCLib/inc\xmc_spi.h ****   XMC_SPI_CH_STATUS_FLAG_TRANSMIT_SHIFT_INDICATION = USIC_CH_PSR_SSCMode_TSIF_Msk,      /**< Status
 235:C:/Workspaces/DAVE-4.4.2-64Bit/GarbageCollector/XMC4200_GC/Libraries/XMCLib/inc\xmc_spi.h ****                                                                                             event *
 236:C:/Workspaces/DAVE-4.4.2-64Bit/GarbageCollector/XMC4200_GC/Libraries/XMCLib/inc\xmc_spi.h ****   XMC_SPI_CH_STATUS_FLAG_TRANSMIT_BUFFER_INDICATION = USIC_CH_PSR_SSCMode_TBIF_Msk,    /**< Status 
 237:C:/Workspaces/DAVE-4.4.2-64Bit/GarbageCollector/XMC4200_GC/Libraries/XMCLib/inc\xmc_spi.h ****                                                                                             event *
 238:C:/Workspaces/DAVE-4.4.2-64Bit/GarbageCollector/XMC4200_GC/Libraries/XMCLib/inc\xmc_spi.h ****   XMC_SPI_CH_STATUS_FLAG_RECEIVE_INDICATION = USIC_CH_PSR_SSCMode_RIF_Msk,             /**< Status 
 239:C:/Workspaces/DAVE-4.4.2-64Bit/GarbageCollector/XMC4200_GC/Libraries/XMCLib/inc\xmc_spi.h ****   XMC_SPI_CH_STATUS_FLAG_ALTERNATIVE_RECEIVE_INDICATION = USIC_CH_PSR_SSCMode_AIF_Msk, /**< Status 
 240:C:/Workspaces/DAVE-4.4.2-64Bit/GarbageCollector/XMC4200_GC/Libraries/XMCLib/inc\xmc_spi.h ****                                                                                             receive
 241:C:/Workspaces/DAVE-4.4.2-64Bit/GarbageCollector/XMC4200_GC/Libraries/XMCLib/inc\xmc_spi.h ****   XMC_SPI_CH_STATUS_FLAG_BAUD_RATE_GENERATOR_INDICATION = USIC_CH_PSR_SSCMode_BRGIF_Msk/**< Status 
 242:C:/Workspaces/DAVE-4.4.2-64Bit/GarbageCollector/XMC4200_GC/Libraries/XMCLib/inc\xmc_spi.h ****                                                                                             generat
 243:C:/Workspaces/DAVE-4.4.2-64Bit/GarbageCollector/XMC4200_GC/Libraries/XMCLib/inc\xmc_spi.h **** } XMC_SPI_CH_STATUS_FLAG_t;
 244:C:/Workspaces/DAVE-4.4.2-64Bit/GarbageCollector/XMC4200_GC/Libraries/XMCLib/inc\xmc_spi.h **** 
 245:C:/Workspaces/DAVE-4.4.2-64Bit/GarbageCollector/XMC4200_GC/Libraries/XMCLib/inc\xmc_spi.h **** /**
 246:C:/Workspaces/DAVE-4.4.2-64Bit/GarbageCollector/XMC4200_GC/Libraries/XMCLib/inc\xmc_spi.h ****  * Defines input frequency sources for slave select signal delay configuration.
 247:C:/Workspaces/DAVE-4.4.2-64Bit/GarbageCollector/XMC4200_GC/Libraries/XMCLib/inc\xmc_spi.h ****  */
 248:C:/Workspaces/DAVE-4.4.2-64Bit/GarbageCollector/XMC4200_GC/Libraries/XMCLib/inc\xmc_spi.h **** typedef enum XMC_SPI_CH_INPUT_FREQ_SLAVE_SELECT_DELAY
 249:C:/Workspaces/DAVE-4.4.2-64Bit/GarbageCollector/XMC4200_GC/Libraries/XMCLib/inc\xmc_spi.h **** {
 250:C:/Workspaces/DAVE-4.4.2-64Bit/GarbageCollector/XMC4200_GC/Libraries/XMCLib/inc\xmc_spi.h ****   XMC_SPI_CH_INPUT_FREQ_SLAVE_SELECT_DELAY_FPDIV = 0x0UL, /**< Output of PDIV divider: FPDIV */
 251:C:/Workspaces/DAVE-4.4.2-64Bit/GarbageCollector/XMC4200_GC/Libraries/XMCLib/inc\xmc_spi.h ****   XMC_SPI_CH_INPUT_FREQ_SLAVE_SELECT_DELAY_FPPP  = 0x1UL << USIC_CH_PCR_SSCMode_CTQSEL1_Pos, /**< P
 252:C:/Workspaces/DAVE-4.4.2-64Bit/GarbageCollector/XMC4200_GC/Libraries/XMCLib/inc\xmc_spi.h ****   XMC_SPI_CH_INPUT_FREQ_SLAVE_SELECT_DELAY_FSCLK = 0x2UL << USIC_CH_PCR_SSCMode_CTQSEL1_Pos, /**< S
 253:C:/Workspaces/DAVE-4.4.2-64Bit/GarbageCollector/XMC4200_GC/Libraries/XMCLib/inc\xmc_spi.h ****   XMC_SPI_CH_INPUT_FREQ_SLAVE_SELECT_DELAY_FMCLK = 0x3UL << USIC_CH_PCR_SSCMode_CTQSEL1_Pos  /**< M
 254:C:/Workspaces/DAVE-4.4.2-64Bit/GarbageCollector/XMC4200_GC/Libraries/XMCLib/inc\xmc_spi.h **** } XMC_SPI_CH_INPUT_FREQ_SLAVE_SELECT_DELAY_t;
 255:C:/Workspaces/DAVE-4.4.2-64Bit/GarbageCollector/XMC4200_GC/Libraries/XMCLib/inc\xmc_spi.h **** 
 256:C:/Workspaces/DAVE-4.4.2-64Bit/GarbageCollector/XMC4200_GC/Libraries/XMCLib/inc\xmc_spi.h **** /**
 257:C:/Workspaces/DAVE-4.4.2-64Bit/GarbageCollector/XMC4200_GC/Libraries/XMCLib/inc\xmc_spi.h ****  * Define data and clock input stages
 258:C:/Workspaces/DAVE-4.4.2-64Bit/GarbageCollector/XMC4200_GC/Libraries/XMCLib/inc\xmc_spi.h ****  */
 259:C:/Workspaces/DAVE-4.4.2-64Bit/GarbageCollector/XMC4200_GC/Libraries/XMCLib/inc\xmc_spi.h **** typedef enum XMC_SPI_CH_INPUT
 260:C:/Workspaces/DAVE-4.4.2-64Bit/GarbageCollector/XMC4200_GC/Libraries/XMCLib/inc\xmc_spi.h **** {
 261:C:/Workspaces/DAVE-4.4.2-64Bit/GarbageCollector/XMC4200_GC/Libraries/XMCLib/inc\xmc_spi.h ****   XMC_SPI_CH_INPUT_DIN0 = 0UL,         /**< Data input stage 0 */ 
 262:C:/Workspaces/DAVE-4.4.2-64Bit/GarbageCollector/XMC4200_GC/Libraries/XMCLib/inc\xmc_spi.h ****   XMC_SPI_CH_INPUT_SLAVE_SCLKIN = 1UL, /**< Clock input stage */
 263:C:/Workspaces/DAVE-4.4.2-64Bit/GarbageCollector/XMC4200_GC/Libraries/XMCLib/inc\xmc_spi.h ****   XMC_SPI_CH_INPUT_SLAVE_SELIN = 2UL,  /**< Slave select input stage */
 264:C:/Workspaces/DAVE-4.4.2-64Bit/GarbageCollector/XMC4200_GC/Libraries/XMCLib/inc\xmc_spi.h ****   XMC_SPI_CH_INPUT_DIN1 = 3UL,         /**< Data input stage 1 */
 265:C:/Workspaces/DAVE-4.4.2-64Bit/GarbageCollector/XMC4200_GC/Libraries/XMCLib/inc\xmc_spi.h ****   XMC_SPI_CH_INPUT_DIN2 = 4UL,         /**< Data input stage 2 */
 266:C:/Workspaces/DAVE-4.4.2-64Bit/GarbageCollector/XMC4200_GC/Libraries/XMCLib/inc\xmc_spi.h ****   XMC_SPI_CH_INPUT_DIN3 = 5UL          /**< Data input stage 3 */
 267:C:/Workspaces/DAVE-4.4.2-64Bit/GarbageCollector/XMC4200_GC/Libraries/XMCLib/inc\xmc_spi.h **** } XMC_SPI_CH_INPUT_t;
 268:C:/Workspaces/DAVE-4.4.2-64Bit/GarbageCollector/XMC4200_GC/Libraries/XMCLib/inc\xmc_spi.h **** 
 269:C:/Workspaces/DAVE-4.4.2-64Bit/GarbageCollector/XMC4200_GC/Libraries/XMCLib/inc\xmc_spi.h **** /**
 270:C:/Workspaces/DAVE-4.4.2-64Bit/GarbageCollector/XMC4200_GC/Libraries/XMCLib/inc\xmc_spi.h ****  * Define SPI data transfer mode
 271:C:/Workspaces/DAVE-4.4.2-64Bit/GarbageCollector/XMC4200_GC/Libraries/XMCLib/inc\xmc_spi.h ****  */
 272:C:/Workspaces/DAVE-4.4.2-64Bit/GarbageCollector/XMC4200_GC/Libraries/XMCLib/inc\xmc_spi.h **** typedef enum XMC_SPI_CH_MODE
 273:C:/Workspaces/DAVE-4.4.2-64Bit/GarbageCollector/XMC4200_GC/Libraries/XMCLib/inc\xmc_spi.h **** {
 274:C:/Workspaces/DAVE-4.4.2-64Bit/GarbageCollector/XMC4200_GC/Libraries/XMCLib/inc\xmc_spi.h ****   XMC_SPI_CH_MODE_STANDARD = 0UL,            /**< SPI standard full duplex mode */ 
 275:C:/Workspaces/DAVE-4.4.2-64Bit/GarbageCollector/XMC4200_GC/Libraries/XMCLib/inc\xmc_spi.h ****   XMC_SPI_CH_MODE_STANDARD_HALFDUPLEX = 5UL, /**< SPI standard half duplex mode */ 
 276:C:/Workspaces/DAVE-4.4.2-64Bit/GarbageCollector/XMC4200_GC/Libraries/XMCLib/inc\xmc_spi.h ****   XMC_SPI_CH_MODE_DUAL= 6UL,                 /**< SPI half duplex mode with dual data lines */ 
 277:C:/Workspaces/DAVE-4.4.2-64Bit/GarbageCollector/XMC4200_GC/Libraries/XMCLib/inc\xmc_spi.h ****   XMC_SPI_CH_MODE_QUAD= 7UL                  /**< SPI half duplex mode with quad data lines */
 278:C:/Workspaces/DAVE-4.4.2-64Bit/GarbageCollector/XMC4200_GC/Libraries/XMCLib/inc\xmc_spi.h **** } XMC_SPI_CH_MODE_t;
 279:C:/Workspaces/DAVE-4.4.2-64Bit/GarbageCollector/XMC4200_GC/Libraries/XMCLib/inc\xmc_spi.h **** 
 280:C:/Workspaces/DAVE-4.4.2-64Bit/GarbageCollector/XMC4200_GC/Libraries/XMCLib/inc\xmc_spi.h **** 
 281:C:/Workspaces/DAVE-4.4.2-64Bit/GarbageCollector/XMC4200_GC/Libraries/XMCLib/inc\xmc_spi.h **** /**
 282:C:/Workspaces/DAVE-4.4.2-64Bit/GarbageCollector/XMC4200_GC/Libraries/XMCLib/inc\xmc_spi.h ****  * SPI Baudrate Generator shift clock passive level
 283:C:/Workspaces/DAVE-4.4.2-64Bit/GarbageCollector/XMC4200_GC/Libraries/XMCLib/inc\xmc_spi.h ****  */
 284:C:/Workspaces/DAVE-4.4.2-64Bit/GarbageCollector/XMC4200_GC/Libraries/XMCLib/inc\xmc_spi.h **** typedef enum XMC_SPI_CH_BRG_SHIFT_CLOCK_PASSIVE_LEVEL
 285:C:/Workspaces/DAVE-4.4.2-64Bit/GarbageCollector/XMC4200_GC/Libraries/XMCLib/inc\xmc_spi.h **** {
 286:C:/Workspaces/DAVE-4.4.2-64Bit/GarbageCollector/XMC4200_GC/Libraries/XMCLib/inc\xmc_spi.h ****   /**< Passive clock level 0, delay disabled */
 287:C:/Workspaces/DAVE-4.4.2-64Bit/GarbageCollector/XMC4200_GC/Libraries/XMCLib/inc\xmc_spi.h ****   XMC_SPI_CH_BRG_SHIFT_CLOCK_PASSIVE_LEVEL_0_DELAY_DISABLED = XMC_USIC_CH_BRG_SHIFT_CLOCK_PASSIVE_L
 288:C:/Workspaces/DAVE-4.4.2-64Bit/GarbageCollector/XMC4200_GC/Libraries/XMCLib/inc\xmc_spi.h ****   /**< Passive clock level 1, delay disabled */
 289:C:/Workspaces/DAVE-4.4.2-64Bit/GarbageCollector/XMC4200_GC/Libraries/XMCLib/inc\xmc_spi.h ****   XMC_SPI_CH_BRG_SHIFT_CLOCK_PASSIVE_LEVEL_1_DELAY_DISABLED = XMC_USIC_CH_BRG_SHIFT_CLOCK_PASSIVE_L
 290:C:/Workspaces/DAVE-4.4.2-64Bit/GarbageCollector/XMC4200_GC/Libraries/XMCLib/inc\xmc_spi.h ****   /**< Passive clock level 0, delay enabled */
 291:C:/Workspaces/DAVE-4.4.2-64Bit/GarbageCollector/XMC4200_GC/Libraries/XMCLib/inc\xmc_spi.h ****   XMC_SPI_CH_BRG_SHIFT_CLOCK_PASSIVE_LEVEL_0_DELAY_ENABLED  = XMC_USIC_CH_BRG_SHIFT_CLOCK_PASSIVE_L
 292:C:/Workspaces/DAVE-4.4.2-64Bit/GarbageCollector/XMC4200_GC/Libraries/XMCLib/inc\xmc_spi.h ****   /**< Passive clock level 1, delay enabled */
 293:C:/Workspaces/DAVE-4.4.2-64Bit/GarbageCollector/XMC4200_GC/Libraries/XMCLib/inc\xmc_spi.h ****   XMC_SPI_CH_BRG_SHIFT_CLOCK_PASSIVE_LEVEL_1_DELAY_ENABLED  = XMC_USIC_CH_BRG_SHIFT_CLOCK_PASSIVE_L
 294:C:/Workspaces/DAVE-4.4.2-64Bit/GarbageCollector/XMC4200_GC/Libraries/XMCLib/inc\xmc_spi.h **** } XMC_SPI_CH_BRG_SHIFT_CLOCK_PASSIVE_LEVEL_t;
 295:C:/Workspaces/DAVE-4.4.2-64Bit/GarbageCollector/XMC4200_GC/Libraries/XMCLib/inc\xmc_spi.h **** 
 296:C:/Workspaces/DAVE-4.4.2-64Bit/GarbageCollector/XMC4200_GC/Libraries/XMCLib/inc\xmc_spi.h **** /**
 297:C:/Workspaces/DAVE-4.4.2-64Bit/GarbageCollector/XMC4200_GC/Libraries/XMCLib/inc\xmc_spi.h ****  * SPI Baudrate Generator shift clock output
 298:C:/Workspaces/DAVE-4.4.2-64Bit/GarbageCollector/XMC4200_GC/Libraries/XMCLib/inc\xmc_spi.h **** */
 299:C:/Workspaces/DAVE-4.4.2-64Bit/GarbageCollector/XMC4200_GC/Libraries/XMCLib/inc\xmc_spi.h **** typedef enum XMC_SPI_CH_BRG_SHIFT_CLOCK_OUTPUT
 300:C:/Workspaces/DAVE-4.4.2-64Bit/GarbageCollector/XMC4200_GC/Libraries/XMCLib/inc\xmc_spi.h **** {
 301:C:/Workspaces/DAVE-4.4.2-64Bit/GarbageCollector/XMC4200_GC/Libraries/XMCLib/inc\xmc_spi.h ****   XMC_SPI_CH_BRG_SHIFT_CLOCK_OUTPUT_SCLK = XMC_USIC_CH_BRG_SHIFT_CLOCK_OUTPUT_SCLK,  /**< Baudrate 
 302:C:/Workspaces/DAVE-4.4.2-64Bit/GarbageCollector/XMC4200_GC/Libraries/XMCLib/inc\xmc_spi.h ****   XMC_SPI_CH_BRG_SHIFT_CLOCK_OUTPUT_DX1  = XMC_USIC_CH_BRG_SHIFT_CLOCK_OUTPUT_DX1   /**< Clock obta
 303:C:/Workspaces/DAVE-4.4.2-64Bit/GarbageCollector/XMC4200_GC/Libraries/XMCLib/inc\xmc_spi.h **** } XMC_SPI_CH_BRG_SHIFT_CLOCK_OUTPUT_t;
 304:C:/Workspaces/DAVE-4.4.2-64Bit/GarbageCollector/XMC4200_GC/Libraries/XMCLib/inc\xmc_spi.h **** 
 305:C:/Workspaces/DAVE-4.4.2-64Bit/GarbageCollector/XMC4200_GC/Libraries/XMCLib/inc\xmc_spi.h **** /**
 306:C:/Workspaces/DAVE-4.4.2-64Bit/GarbageCollector/XMC4200_GC/Libraries/XMCLib/inc\xmc_spi.h ****  * SPI channel interrupt node pointers
 307:C:/Workspaces/DAVE-4.4.2-64Bit/GarbageCollector/XMC4200_GC/Libraries/XMCLib/inc\xmc_spi.h ****  */
 308:C:/Workspaces/DAVE-4.4.2-64Bit/GarbageCollector/XMC4200_GC/Libraries/XMCLib/inc\xmc_spi.h **** typedef enum XMC_SPI_CH_INTERRUPT_NODE_POINTER
 309:C:/Workspaces/DAVE-4.4.2-64Bit/GarbageCollector/XMC4200_GC/Libraries/XMCLib/inc\xmc_spi.h **** {
 310:C:/Workspaces/DAVE-4.4.2-64Bit/GarbageCollector/XMC4200_GC/Libraries/XMCLib/inc\xmc_spi.h ****   XMC_SPI_CH_INTERRUPT_NODE_POINTER_TRANSMIT_SHIFT      = XMC_USIC_CH_INTERRUPT_NODE_POINTER_TRANSM
 311:C:/Workspaces/DAVE-4.4.2-64Bit/GarbageCollector/XMC4200_GC/Libraries/XMCLib/inc\xmc_spi.h ****   XMC_SPI_CH_INTERRUPT_NODE_POINTER_TRANSMIT_BUFFER     = XMC_USIC_CH_INTERRUPT_NODE_POINTER_TRANSM
 312:C:/Workspaces/DAVE-4.4.2-64Bit/GarbageCollector/XMC4200_GC/Libraries/XMCLib/inc\xmc_spi.h ****   XMC_SPI_CH_INTERRUPT_NODE_POINTER_RECEIVE             = XMC_USIC_CH_INTERRUPT_NODE_POINTER_RECEIV
 313:C:/Workspaces/DAVE-4.4.2-64Bit/GarbageCollector/XMC4200_GC/Libraries/XMCLib/inc\xmc_spi.h ****   XMC_SPI_CH_INTERRUPT_NODE_POINTER_ALTERNATE_RECEIVE   = XMC_USIC_CH_INTERRUPT_NODE_POINTER_ALTERN
 314:C:/Workspaces/DAVE-4.4.2-64Bit/GarbageCollector/XMC4200_GC/Libraries/XMCLib/inc\xmc_spi.h ****   XMC_SPI_CH_INTERRUPT_NODE_POINTER_PROTOCOL            = XMC_USIC_CH_INTERRUPT_NODE_POINTER_PROTOC
 315:C:/Workspaces/DAVE-4.4.2-64Bit/GarbageCollector/XMC4200_GC/Libraries/XMCLib/inc\xmc_spi.h **** } XMC_SPI_CH_INTERRUPT_NODE_POINTER_t;
 316:C:/Workspaces/DAVE-4.4.2-64Bit/GarbageCollector/XMC4200_GC/Libraries/XMCLib/inc\xmc_spi.h **** 
 317:C:/Workspaces/DAVE-4.4.2-64Bit/GarbageCollector/XMC4200_GC/Libraries/XMCLib/inc\xmc_spi.h **** /**************************************************************************************************
 318:C:/Workspaces/DAVE-4.4.2-64Bit/GarbageCollector/XMC4200_GC/Libraries/XMCLib/inc\xmc_spi.h ****  * DATA STRUCTURES
 319:C:/Workspaces/DAVE-4.4.2-64Bit/GarbageCollector/XMC4200_GC/Libraries/XMCLib/inc\xmc_spi.h **** ***************************************************************************************************
 320:C:/Workspaces/DAVE-4.4.2-64Bit/GarbageCollector/XMC4200_GC/Libraries/XMCLib/inc\xmc_spi.h **** 
 321:C:/Workspaces/DAVE-4.4.2-64Bit/GarbageCollector/XMC4200_GC/Libraries/XMCLib/inc\xmc_spi.h **** /**
 322:C:/Workspaces/DAVE-4.4.2-64Bit/GarbageCollector/XMC4200_GC/Libraries/XMCLib/inc\xmc_spi.h ****  * Structure for initializing SPI channel.
 323:C:/Workspaces/DAVE-4.4.2-64Bit/GarbageCollector/XMC4200_GC/Libraries/XMCLib/inc\xmc_spi.h ****  */
 324:C:/Workspaces/DAVE-4.4.2-64Bit/GarbageCollector/XMC4200_GC/Libraries/XMCLib/inc\xmc_spi.h **** typedef struct XMC_SPI_CH_CONFIG
 325:C:/Workspaces/DAVE-4.4.2-64Bit/GarbageCollector/XMC4200_GC/Libraries/XMCLib/inc\xmc_spi.h **** {
 326:C:/Workspaces/DAVE-4.4.2-64Bit/GarbageCollector/XMC4200_GC/Libraries/XMCLib/inc\xmc_spi.h ****   uint32_t baudrate;							                /**< Module baud rate for communication */
 327:C:/Workspaces/DAVE-4.4.2-64Bit/GarbageCollector/XMC4200_GC/Libraries/XMCLib/inc\xmc_spi.h ****   bool normal_divider_mode;                       /**< Selects normal divider mode for baudrate gen
 328:C:/Workspaces/DAVE-4.4.2-64Bit/GarbageCollector/XMC4200_GC/Libraries/XMCLib/inc\xmc_spi.h ****   XMC_SPI_CH_BUS_MODE_t bus_mode;                 /**< Bus mode: Master/Slave */
 329:C:/Workspaces/DAVE-4.4.2-64Bit/GarbageCollector/XMC4200_GC/Libraries/XMCLib/inc\xmc_spi.h ****   XMC_SPI_CH_SLAVE_SEL_MSLS_INV_t selo_inversion; /**< Enable inversion of Slave select signal rela
 330:C:/Workspaces/DAVE-4.4.2-64Bit/GarbageCollector/XMC4200_GC/Libraries/XMCLib/inc\xmc_spi.h ****                                                        MSLS signal  */
 331:C:/Workspaces/DAVE-4.4.2-64Bit/GarbageCollector/XMC4200_GC/Libraries/XMCLib/inc\xmc_spi.h ****   XMC_USIC_CH_PARITY_MODE_t parity_mode;          /**< Enable parity check for transmit and receive
 332:C:/Workspaces/DAVE-4.4.2-64Bit/GarbageCollector/XMC4200_GC/Libraries/XMCLib/inc\xmc_spi.h **** } XMC_SPI_CH_CONFIG_t;
 333:C:/Workspaces/DAVE-4.4.2-64Bit/GarbageCollector/XMC4200_GC/Libraries/XMCLib/inc\xmc_spi.h **** 
 334:C:/Workspaces/DAVE-4.4.2-64Bit/GarbageCollector/XMC4200_GC/Libraries/XMCLib/inc\xmc_spi.h **** /**************************************************************************************************
 335:C:/Workspaces/DAVE-4.4.2-64Bit/GarbageCollector/XMC4200_GC/Libraries/XMCLib/inc\xmc_spi.h ****  * API PROTOTYPES
 336:C:/Workspaces/DAVE-4.4.2-64Bit/GarbageCollector/XMC4200_GC/Libraries/XMCLib/inc\xmc_spi.h ****  **************************************************************************************************
 337:C:/Workspaces/DAVE-4.4.2-64Bit/GarbageCollector/XMC4200_GC/Libraries/XMCLib/inc\xmc_spi.h **** 
 338:C:/Workspaces/DAVE-4.4.2-64Bit/GarbageCollector/XMC4200_GC/Libraries/XMCLib/inc\xmc_spi.h **** #ifdef __cplusplus
 339:C:/Workspaces/DAVE-4.4.2-64Bit/GarbageCollector/XMC4200_GC/Libraries/XMCLib/inc\xmc_spi.h **** extern "C" {
 340:C:/Workspaces/DAVE-4.4.2-64Bit/GarbageCollector/XMC4200_GC/Libraries/XMCLib/inc\xmc_spi.h **** #endif
 341:C:/Workspaces/DAVE-4.4.2-64Bit/GarbageCollector/XMC4200_GC/Libraries/XMCLib/inc\xmc_spi.h **** 
 342:C:/Workspaces/DAVE-4.4.2-64Bit/GarbageCollector/XMC4200_GC/Libraries/XMCLib/inc\xmc_spi.h **** /**
 343:C:/Workspaces/DAVE-4.4.2-64Bit/GarbageCollector/XMC4200_GC/Libraries/XMCLib/inc\xmc_spi.h ****  * @param channel A constant pointer to XMC_USIC_CH_t, pointing to the USIC channel base address.
 344:C:/Workspaces/DAVE-4.4.2-64Bit/GarbageCollector/XMC4200_GC/Libraries/XMCLib/inc\xmc_spi.h ****  * @param config pointer to constant SPI channel configuration data structure.\n
 345:C:/Workspaces/DAVE-4.4.2-64Bit/GarbageCollector/XMC4200_GC/Libraries/XMCLib/inc\xmc_spi.h ****  *               Refer data structure @ref XMC_SPI_CH_CONFIG_t for detail.
 346:C:/Workspaces/DAVE-4.4.2-64Bit/GarbageCollector/XMC4200_GC/Libraries/XMCLib/inc\xmc_spi.h ****  *
 347:C:/Workspaces/DAVE-4.4.2-64Bit/GarbageCollector/XMC4200_GC/Libraries/XMCLib/inc\xmc_spi.h ****  * @return None
 348:C:/Workspaces/DAVE-4.4.2-64Bit/GarbageCollector/XMC4200_GC/Libraries/XMCLib/inc\xmc_spi.h ****  *
 349:C:/Workspaces/DAVE-4.4.2-64Bit/GarbageCollector/XMC4200_GC/Libraries/XMCLib/inc\xmc_spi.h ****  * \par<b>Description:</b><br>
 350:C:/Workspaces/DAVE-4.4.2-64Bit/GarbageCollector/XMC4200_GC/Libraries/XMCLib/inc\xmc_spi.h ****  * Initializes the selected SPI \a channel with the \a config structure.\n\n
 351:C:/Workspaces/DAVE-4.4.2-64Bit/GarbageCollector/XMC4200_GC/Libraries/XMCLib/inc\xmc_spi.h ****  * Enable SPI channel by calling XMC_USIC_CH_Enable() and then configures
 352:C:/Workspaces/DAVE-4.4.2-64Bit/GarbageCollector/XMC4200_GC/Libraries/XMCLib/inc\xmc_spi.h ****  * <ul>
 353:C:/Workspaces/DAVE-4.4.2-64Bit/GarbageCollector/XMC4200_GC/Libraries/XMCLib/inc\xmc_spi.h ****  * <li>Baudrate,</li>
 354:C:/Workspaces/DAVE-4.4.2-64Bit/GarbageCollector/XMC4200_GC/Libraries/XMCLib/inc\xmc_spi.h ****  * <li>Passive data level as active high,</li>
 355:C:/Workspaces/DAVE-4.4.2-64Bit/GarbageCollector/XMC4200_GC/Libraries/XMCLib/inc\xmc_spi.h ****  * <li>Shift control signal as active high,</li>
 356:C:/Workspaces/DAVE-4.4.2-64Bit/GarbageCollector/XMC4200_GC/Libraries/XMCLib/inc\xmc_spi.h ****  * <li>Frame length as 64U,</li>
 357:C:/Workspaces/DAVE-4.4.2-64Bit/GarbageCollector/XMC4200_GC/Libraries/XMCLib/inc\xmc_spi.h ****  * <li>Word length as 8U,</li>
 358:C:/Workspaces/DAVE-4.4.2-64Bit/GarbageCollector/XMC4200_GC/Libraries/XMCLib/inc\xmc_spi.h ****  * <li>Enable Hardware port control mode,</li>
 359:C:/Workspaces/DAVE-4.4.2-64Bit/GarbageCollector/XMC4200_GC/Libraries/XMCLib/inc\xmc_spi.h ****  * <li>Enable transmission of data TDV(Transmit data valid) bit is set to 1,</li>
 360:C:/Workspaces/DAVE-4.4.2-64Bit/GarbageCollector/XMC4200_GC/Libraries/XMCLib/inc\xmc_spi.h ****  * <li>Enable invalidation of data in TBUF once loaded into shift register,</li>
 361:C:/Workspaces/DAVE-4.4.2-64Bit/GarbageCollector/XMC4200_GC/Libraries/XMCLib/inc\xmc_spi.h ****  * <li>Parity mode settings</li>
 362:C:/Workspaces/DAVE-4.4.2-64Bit/GarbageCollector/XMC4200_GC/Libraries/XMCLib/inc\xmc_spi.h ****  * </ul>
 363:C:/Workspaces/DAVE-4.4.2-64Bit/GarbageCollector/XMC4200_GC/Libraries/XMCLib/inc\xmc_spi.h ****  * And if master mode is selected,
 364:C:/Workspaces/DAVE-4.4.2-64Bit/GarbageCollector/XMC4200_GC/Libraries/XMCLib/inc\xmc_spi.h ****  * <ul>
 365:C:/Workspaces/DAVE-4.4.2-64Bit/GarbageCollector/XMC4200_GC/Libraries/XMCLib/inc\xmc_spi.h ****  * <li>Enables MSLS signal generation,</li>
 366:C:/Workspaces/DAVE-4.4.2-64Bit/GarbageCollector/XMC4200_GC/Libraries/XMCLib/inc\xmc_spi.h ****  * <li>configures slave selection as normal mode,</li>
 367:C:/Workspaces/DAVE-4.4.2-64Bit/GarbageCollector/XMC4200_GC/Libraries/XMCLib/inc\xmc_spi.h ****  * <li>Set polarity for the Slave signal,</li>
 368:C:/Workspaces/DAVE-4.4.2-64Bit/GarbageCollector/XMC4200_GC/Libraries/XMCLib/inc\xmc_spi.h ****  * <li>Enable Frame end mode(MSLS signal is kept active after transmission of a frame)</li>
 369:C:/Workspaces/DAVE-4.4.2-64Bit/GarbageCollector/XMC4200_GC/Libraries/XMCLib/inc\xmc_spi.h ****  * </ul>
 370:C:/Workspaces/DAVE-4.4.2-64Bit/GarbageCollector/XMC4200_GC/Libraries/XMCLib/inc\xmc_spi.h ****  */
 371:C:/Workspaces/DAVE-4.4.2-64Bit/GarbageCollector/XMC4200_GC/Libraries/XMCLib/inc\xmc_spi.h **** void XMC_SPI_CH_Init(XMC_USIC_CH_t *const channel, const XMC_SPI_CH_CONFIG_t *const config);
 372:C:/Workspaces/DAVE-4.4.2-64Bit/GarbageCollector/XMC4200_GC/Libraries/XMCLib/inc\xmc_spi.h **** 
 373:C:/Workspaces/DAVE-4.4.2-64Bit/GarbageCollector/XMC4200_GC/Libraries/XMCLib/inc\xmc_spi.h **** /**
 374:C:/Workspaces/DAVE-4.4.2-64Bit/GarbageCollector/XMC4200_GC/Libraries/XMCLib/inc\xmc_spi.h ****  * @param channel A constant pointer to XMC_USIC_CH_t, pointing to the USIC channel base address.
 375:C:/Workspaces/DAVE-4.4.2-64Bit/GarbageCollector/XMC4200_GC/Libraries/XMCLib/inc\xmc_spi.h ****  *
 376:C:/Workspaces/DAVE-4.4.2-64Bit/GarbageCollector/XMC4200_GC/Libraries/XMCLib/inc\xmc_spi.h ****  * @return None
 377:C:/Workspaces/DAVE-4.4.2-64Bit/GarbageCollector/XMC4200_GC/Libraries/XMCLib/inc\xmc_spi.h ****  *
 378:C:/Workspaces/DAVE-4.4.2-64Bit/GarbageCollector/XMC4200_GC/Libraries/XMCLib/inc\xmc_spi.h ****  * \par<b>Description:</b><br>
 379:C:/Workspaces/DAVE-4.4.2-64Bit/GarbageCollector/XMC4200_GC/Libraries/XMCLib/inc\xmc_spi.h ****  * Set the selected USIC channel to operate in SPI mode, by setting CCR.MODE bits.\n\n
 380:C:/Workspaces/DAVE-4.4.2-64Bit/GarbageCollector/XMC4200_GC/Libraries/XMCLib/inc\xmc_spi.h ****  * It should be executed after XMC_SPI_CH_Init() during initialization. By invoking XMC_SPI_CH_Stop
 381:C:/Workspaces/DAVE-4.4.2-64Bit/GarbageCollector/XMC4200_GC/Libraries/XMCLib/inc\xmc_spi.h ****  * to IDLE state. Call XMC_SPI_CH_Start() to set the SPI mode again, as needed later in the program
 382:C:/Workspaces/DAVE-4.4.2-64Bit/GarbageCollector/XMC4200_GC/Libraries/XMCLib/inc\xmc_spi.h ****  *
 383:C:/Workspaces/DAVE-4.4.2-64Bit/GarbageCollector/XMC4200_GC/Libraries/XMCLib/inc\xmc_spi.h ****  * \par<b>Related APIs:</b><BR>
 384:C:/Workspaces/DAVE-4.4.2-64Bit/GarbageCollector/XMC4200_GC/Libraries/XMCLib/inc\xmc_spi.h ****  * XMC_SPI_CH_Init(), XMC_SPI_CH_Stop()
 385:C:/Workspaces/DAVE-4.4.2-64Bit/GarbageCollector/XMC4200_GC/Libraries/XMCLib/inc\xmc_spi.h ****  */
 386:C:/Workspaces/DAVE-4.4.2-64Bit/GarbageCollector/XMC4200_GC/Libraries/XMCLib/inc\xmc_spi.h **** __STATIC_INLINE void XMC_SPI_CH_Start(XMC_USIC_CH_t *const channel)
 387:C:/Workspaces/DAVE-4.4.2-64Bit/GarbageCollector/XMC4200_GC/Libraries/XMCLib/inc\xmc_spi.h **** {
 388:C:/Workspaces/DAVE-4.4.2-64Bit/GarbageCollector/XMC4200_GC/Libraries/XMCLib/inc\xmc_spi.h ****   /* USIC channel in SPI mode */
 389:C:/Workspaces/DAVE-4.4.2-64Bit/GarbageCollector/XMC4200_GC/Libraries/XMCLib/inc\xmc_spi.h ****   XMC_USIC_CH_SetMode(channel, XMC_USIC_CH_OPERATING_MODE_SPI);
 390:C:/Workspaces/DAVE-4.4.2-64Bit/GarbageCollector/XMC4200_GC/Libraries/XMCLib/inc\xmc_spi.h **** }
 391:C:/Workspaces/DAVE-4.4.2-64Bit/GarbageCollector/XMC4200_GC/Libraries/XMCLib/inc\xmc_spi.h **** 
 392:C:/Workspaces/DAVE-4.4.2-64Bit/GarbageCollector/XMC4200_GC/Libraries/XMCLib/inc\xmc_spi.h **** /**
 393:C:/Workspaces/DAVE-4.4.2-64Bit/GarbageCollector/XMC4200_GC/Libraries/XMCLib/inc\xmc_spi.h ****  * @param channel A constant pointer to XMC_USIC_CH_t, pointing to the USIC channel base address.
 394:C:/Workspaces/DAVE-4.4.2-64Bit/GarbageCollector/XMC4200_GC/Libraries/XMCLib/inc\xmc_spi.h ****  *
 395:C:/Workspaces/DAVE-4.4.2-64Bit/GarbageCollector/XMC4200_GC/Libraries/XMCLib/inc\xmc_spi.h ****  * @return XMC_SPI_CH_STATUS_t Status of the SPI driver after the request for stopping is processed
 396:C:/Workspaces/DAVE-4.4.2-64Bit/GarbageCollector/XMC4200_GC/Libraries/XMCLib/inc\xmc_spi.h ****  *        XMC_SPI_CH_STATUS_OK- If the USIC channel is successfully put to IDLE mode. \n
 397:C:/Workspaces/DAVE-4.4.2-64Bit/GarbageCollector/XMC4200_GC/Libraries/XMCLib/inc\xmc_spi.h ****  *        XMC_SPI_CH_STATUS_BUSY- If the USIC channel is busy transmitting data.
 398:C:/Workspaces/DAVE-4.4.2-64Bit/GarbageCollector/XMC4200_GC/Libraries/XMCLib/inc\xmc_spi.h ****  *
 399:C:/Workspaces/DAVE-4.4.2-64Bit/GarbageCollector/XMC4200_GC/Libraries/XMCLib/inc\xmc_spi.h ****  * \par<b>Description:</b><br>
 400:C:/Workspaces/DAVE-4.4.2-64Bit/GarbageCollector/XMC4200_GC/Libraries/XMCLib/inc\xmc_spi.h ****  * Set the selected SPI channel to IDLE mode, by clearing CCR.MODE bits.\n\n
 401:C:/Workspaces/DAVE-4.4.2-64Bit/GarbageCollector/XMC4200_GC/Libraries/XMCLib/inc\xmc_spi.h ****  * After calling XMC_SPI_CH_Stop, channel is IDLE mode. So no communication is supported. XMC_SPI_C
 402:C:/Workspaces/DAVE-4.4.2-64Bit/GarbageCollector/XMC4200_GC/Libraries/XMCLib/inc\xmc_spi.h ****  * invoked to start the communication again.
 403:C:/Workspaces/DAVE-4.4.2-64Bit/GarbageCollector/XMC4200_GC/Libraries/XMCLib/inc\xmc_spi.h ****  *
 404:C:/Workspaces/DAVE-4.4.2-64Bit/GarbageCollector/XMC4200_GC/Libraries/XMCLib/inc\xmc_spi.h ****  * \par<b>Related APIs:</b><BR>
 405:C:/Workspaces/DAVE-4.4.2-64Bit/GarbageCollector/XMC4200_GC/Libraries/XMCLib/inc\xmc_spi.h ****  * XMC_SPI_CH_Start()
 406:C:/Workspaces/DAVE-4.4.2-64Bit/GarbageCollector/XMC4200_GC/Libraries/XMCLib/inc\xmc_spi.h ****  */
 407:C:/Workspaces/DAVE-4.4.2-64Bit/GarbageCollector/XMC4200_GC/Libraries/XMCLib/inc\xmc_spi.h **** XMC_SPI_CH_STATUS_t XMC_SPI_CH_Stop(XMC_USIC_CH_t *const channel);
 408:C:/Workspaces/DAVE-4.4.2-64Bit/GarbageCollector/XMC4200_GC/Libraries/XMCLib/inc\xmc_spi.h **** 
 409:C:/Workspaces/DAVE-4.4.2-64Bit/GarbageCollector/XMC4200_GC/Libraries/XMCLib/inc\xmc_spi.h **** /**
 410:C:/Workspaces/DAVE-4.4.2-64Bit/GarbageCollector/XMC4200_GC/Libraries/XMCLib/inc\xmc_spi.h ****  * @param channel A constant pointer to XMC_USIC_CH_t, pointing to the USIC channel base address.
 411:C:/Workspaces/DAVE-4.4.2-64Bit/GarbageCollector/XMC4200_GC/Libraries/XMCLib/inc\xmc_spi.h ****  * @param rate Bus speed in bits per second
 412:C:/Workspaces/DAVE-4.4.2-64Bit/GarbageCollector/XMC4200_GC/Libraries/XMCLib/inc\xmc_spi.h ****  *
 413:C:/Workspaces/DAVE-4.4.2-64Bit/GarbageCollector/XMC4200_GC/Libraries/XMCLib/inc\xmc_spi.h ****  * @return XMC_SPI_CH_STATUS_t Status of the SPI driver after the request for setting baudrate is p
 414:C:/Workspaces/DAVE-4.4.2-64Bit/GarbageCollector/XMC4200_GC/Libraries/XMCLib/inc\xmc_spi.h ****  *        XMC_SPI_CH_STATUS_OK- If the baudrate is successfully changed. \n
 415:C:/Workspaces/DAVE-4.4.2-64Bit/GarbageCollector/XMC4200_GC/Libraries/XMCLib/inc\xmc_spi.h ****  *        XMC_SPI_CH_STATUS_ERROR- If the new baudrate value is out of range.
 416:C:/Workspaces/DAVE-4.4.2-64Bit/GarbageCollector/XMC4200_GC/Libraries/XMCLib/inc\xmc_spi.h ****  *
 417:C:/Workspaces/DAVE-4.4.2-64Bit/GarbageCollector/XMC4200_GC/Libraries/XMCLib/inc\xmc_spi.h ****  * \par<b>Description:</b><br>
 418:C:/Workspaces/DAVE-4.4.2-64Bit/GarbageCollector/XMC4200_GC/Libraries/XMCLib/inc\xmc_spi.h ****  * Sets the bus speed in bits per second
 419:C:/Workspaces/DAVE-4.4.2-64Bit/GarbageCollector/XMC4200_GC/Libraries/XMCLib/inc\xmc_spi.h ****  *
 420:C:/Workspaces/DAVE-4.4.2-64Bit/GarbageCollector/XMC4200_GC/Libraries/XMCLib/inc\xmc_spi.h ****  * \par<b>Related APIs:</b><BR>
 421:C:/Workspaces/DAVE-4.4.2-64Bit/GarbageCollector/XMC4200_GC/Libraries/XMCLib/inc\xmc_spi.h ****  * XMC_SPI_CH_Init(), XMC_SPI_CH_Stop(), XMC_USIC_CH_GetSCLKFrequency()
 422:C:/Workspaces/DAVE-4.4.2-64Bit/GarbageCollector/XMC4200_GC/Libraries/XMCLib/inc\xmc_spi.h ****  */
 423:C:/Workspaces/DAVE-4.4.2-64Bit/GarbageCollector/XMC4200_GC/Libraries/XMCLib/inc\xmc_spi.h **** XMC_SPI_CH_STATUS_t XMC_SPI_CH_SetBaudrate(XMC_USIC_CH_t *const channel, const uint32_t rate);
 424:C:/Workspaces/DAVE-4.4.2-64Bit/GarbageCollector/XMC4200_GC/Libraries/XMCLib/inc\xmc_spi.h **** 
 425:C:/Workspaces/DAVE-4.4.2-64Bit/GarbageCollector/XMC4200_GC/Libraries/XMCLib/inc\xmc_spi.h **** /**
 426:C:/Workspaces/DAVE-4.4.2-64Bit/GarbageCollector/XMC4200_GC/Libraries/XMCLib/inc\xmc_spi.h ****  * @param channel A constant pointer to XMC_USIC_CH_t, pointing to the USIC channel base address.
 427:C:/Workspaces/DAVE-4.4.2-64Bit/GarbageCollector/XMC4200_GC/Libraries/XMCLib/inc\xmc_spi.h ****  * @param rate Bus speed in bits per second
 428:C:/Workspaces/DAVE-4.4.2-64Bit/GarbageCollector/XMC4200_GC/Libraries/XMCLib/inc\xmc_spi.h ****  * @param normal_divider_mode Selects normal divider mode for baudrate generator instead of default
 429:C:/Workspaces/DAVE-4.4.2-64Bit/GarbageCollector/XMC4200_GC/Libraries/XMCLib/inc\xmc_spi.h ****  *
 430:C:/Workspaces/DAVE-4.4.2-64Bit/GarbageCollector/XMC4200_GC/Libraries/XMCLib/inc\xmc_spi.h ****  * @return XMC_SPI_CH_STATUS_t Status of the SPI driver after the request for setting baudrate is p
 431:C:/Workspaces/DAVE-4.4.2-64Bit/GarbageCollector/XMC4200_GC/Libraries/XMCLib/inc\xmc_spi.h ****  *        XMC_SPI_CH_STATUS_OK- If the baudrate is successfully changed. \n
 432:C:/Workspaces/DAVE-4.4.2-64Bit/GarbageCollector/XMC4200_GC/Libraries/XMCLib/inc\xmc_spi.h ****  *        XMC_SPI_CH_STATUS_ERROR- If the new baudrate value is out of range.
 433:C:/Workspaces/DAVE-4.4.2-64Bit/GarbageCollector/XMC4200_GC/Libraries/XMCLib/inc\xmc_spi.h ****  *
 434:C:/Workspaces/DAVE-4.4.2-64Bit/GarbageCollector/XMC4200_GC/Libraries/XMCLib/inc\xmc_spi.h ****  * \par<b>Description:</b><br>
 435:C:/Workspaces/DAVE-4.4.2-64Bit/GarbageCollector/XMC4200_GC/Libraries/XMCLib/inc\xmc_spi.h ****  * Sets the bus speed in bits per second
 436:C:/Workspaces/DAVE-4.4.2-64Bit/GarbageCollector/XMC4200_GC/Libraries/XMCLib/inc\xmc_spi.h ****  *
 437:C:/Workspaces/DAVE-4.4.2-64Bit/GarbageCollector/XMC4200_GC/Libraries/XMCLib/inc\xmc_spi.h ****  * \par<b>Related APIs:</b><BR>
 438:C:/Workspaces/DAVE-4.4.2-64Bit/GarbageCollector/XMC4200_GC/Libraries/XMCLib/inc\xmc_spi.h ****  * XMC_SPI_CH_Init(), XMC_SPI_CH_Stop(), XMC_USIC_CH_GetSCLKFrequency()
 439:C:/Workspaces/DAVE-4.4.2-64Bit/GarbageCollector/XMC4200_GC/Libraries/XMCLib/inc\xmc_spi.h ****  */
 440:C:/Workspaces/DAVE-4.4.2-64Bit/GarbageCollector/XMC4200_GC/Libraries/XMCLib/inc\xmc_spi.h **** XMC_SPI_CH_STATUS_t XMC_SPI_CH_SetBaudrateEx(XMC_USIC_CH_t *const channel, const uint32_t rate, boo
 441:C:/Workspaces/DAVE-4.4.2-64Bit/GarbageCollector/XMC4200_GC/Libraries/XMCLib/inc\xmc_spi.h **** 
 442:C:/Workspaces/DAVE-4.4.2-64Bit/GarbageCollector/XMC4200_GC/Libraries/XMCLib/inc\xmc_spi.h **** /**
 443:C:/Workspaces/DAVE-4.4.2-64Bit/GarbageCollector/XMC4200_GC/Libraries/XMCLib/inc\xmc_spi.h ****  * @param channel A constant pointer to XMC_USIC_CH_t, pointing to the USIC channel base address.
 444:C:/Workspaces/DAVE-4.4.2-64Bit/GarbageCollector/XMC4200_GC/Libraries/XMCLib/inc\xmc_spi.h ****  * @param slave Slave select signal.\n
 445:C:/Workspaces/DAVE-4.4.2-64Bit/GarbageCollector/XMC4200_GC/Libraries/XMCLib/inc\xmc_spi.h ****  *              Refer @ref XMC_SPI_CH_SLAVE_SELECT_t for valid values.
 446:C:/Workspaces/DAVE-4.4.2-64Bit/GarbageCollector/XMC4200_GC/Libraries/XMCLib/inc\xmc_spi.h ****  *
 447:C:/Workspaces/DAVE-4.4.2-64Bit/GarbageCollector/XMC4200_GC/Libraries/XMCLib/inc\xmc_spi.h ****  * @return None
 448:C:/Workspaces/DAVE-4.4.2-64Bit/GarbageCollector/XMC4200_GC/Libraries/XMCLib/inc\xmc_spi.h ****  *
 449:C:/Workspaces/DAVE-4.4.2-64Bit/GarbageCollector/XMC4200_GC/Libraries/XMCLib/inc\xmc_spi.h ****  * \par<b>Description:</b><br>
 450:C:/Workspaces/DAVE-4.4.2-64Bit/GarbageCollector/XMC4200_GC/Libraries/XMCLib/inc\xmc_spi.h ****  * Enable the selected slave signal by setting PCR.SELO bits.\n\n
 451:C:/Workspaces/DAVE-4.4.2-64Bit/GarbageCollector/XMC4200_GC/Libraries/XMCLib/inc\xmc_spi.h ****  * Each slave is connected with one slave select signal. This is not configured in XMC_SPI_CH_Init(
 452:C:/Workspaces/DAVE-4.4.2-64Bit/GarbageCollector/XMC4200_GC/Libraries/XMCLib/inc\xmc_spi.h ****  * XMC_SPI_CH_EnableSlaveSelect() with required \a slave to to start the communication. After finis
 453:C:/Workspaces/DAVE-4.4.2-64Bit/GarbageCollector/XMC4200_GC/Libraries/XMCLib/inc\xmc_spi.h ****  * communication XMC_SPI_CH_DisableSlaveSelect() can be invoked to disable the slaves.
 454:C:/Workspaces/DAVE-4.4.2-64Bit/GarbageCollector/XMC4200_GC/Libraries/XMCLib/inc\xmc_spi.h ****  *
 455:C:/Workspaces/DAVE-4.4.2-64Bit/GarbageCollector/XMC4200_GC/Libraries/XMCLib/inc\xmc_spi.h ****  * \par<b>Related APIs:</b><BR>
 456:C:/Workspaces/DAVE-4.4.2-64Bit/GarbageCollector/XMC4200_GC/Libraries/XMCLib/inc\xmc_spi.h ****  * XMC_SPI_CH_DisableSlaveSelect()
 457:C:/Workspaces/DAVE-4.4.2-64Bit/GarbageCollector/XMC4200_GC/Libraries/XMCLib/inc\xmc_spi.h ****  */
 458:C:/Workspaces/DAVE-4.4.2-64Bit/GarbageCollector/XMC4200_GC/Libraries/XMCLib/inc\xmc_spi.h **** void XMC_SPI_CH_EnableSlaveSelect(XMC_USIC_CH_t *const channel, const XMC_SPI_CH_SLAVE_SELECT_t sla
 459:C:/Workspaces/DAVE-4.4.2-64Bit/GarbageCollector/XMC4200_GC/Libraries/XMCLib/inc\xmc_spi.h **** 
 460:C:/Workspaces/DAVE-4.4.2-64Bit/GarbageCollector/XMC4200_GC/Libraries/XMCLib/inc\xmc_spi.h **** /**
 461:C:/Workspaces/DAVE-4.4.2-64Bit/GarbageCollector/XMC4200_GC/Libraries/XMCLib/inc\xmc_spi.h ****  * @param channel A constant ponter to XMC_USIC_CH_t, pointing to the USIC channel base address.
 462:C:/Workspaces/DAVE-4.4.2-64Bit/GarbageCollector/XMC4200_GC/Libraries/XMCLib/inc\xmc_spi.h ****  *
 463:C:/Workspaces/DAVE-4.4.2-64Bit/GarbageCollector/XMC4200_GC/Libraries/XMCLib/inc\xmc_spi.h ****  * @return None
 464:C:/Workspaces/DAVE-4.4.2-64Bit/GarbageCollector/XMC4200_GC/Libraries/XMCLib/inc\xmc_spi.h ****  *
 465:C:/Workspaces/DAVE-4.4.2-64Bit/GarbageCollector/XMC4200_GC/Libraries/XMCLib/inc\xmc_spi.h ****  * \par<b>Description:</b><br>
 466:C:/Workspaces/DAVE-4.4.2-64Bit/GarbageCollector/XMC4200_GC/Libraries/XMCLib/inc\xmc_spi.h ****  * Disable all the slave signals by clearing PCR.SELO bits.\n\n
 467:C:/Workspaces/DAVE-4.4.2-64Bit/GarbageCollector/XMC4200_GC/Libraries/XMCLib/inc\xmc_spi.h ****  * XMC_SPI_CH_EnableSlaveSelect() has to be invoked to start the communication with the desired sla
 468:C:/Workspaces/DAVE-4.4.2-64Bit/GarbageCollector/XMC4200_GC/Libraries/XMCLib/inc\xmc_spi.h ****  *
 469:C:/Workspaces/DAVE-4.4.2-64Bit/GarbageCollector/XMC4200_GC/Libraries/XMCLib/inc\xmc_spi.h ****  * \par<b>Related APIs:</b><BR>
 470:C:/Workspaces/DAVE-4.4.2-64Bit/GarbageCollector/XMC4200_GC/Libraries/XMCLib/inc\xmc_spi.h ****  * XMC_SPI_CH_EnableSlaveSelect()
 471:C:/Workspaces/DAVE-4.4.2-64Bit/GarbageCollector/XMC4200_GC/Libraries/XMCLib/inc\xmc_spi.h ****  */
 472:C:/Workspaces/DAVE-4.4.2-64Bit/GarbageCollector/XMC4200_GC/Libraries/XMCLib/inc\xmc_spi.h **** void XMC_SPI_CH_DisableSlaveSelect(XMC_USIC_CH_t *const channel);
 473:C:/Workspaces/DAVE-4.4.2-64Bit/GarbageCollector/XMC4200_GC/Libraries/XMCLib/inc\xmc_spi.h **** 
 474:C:/Workspaces/DAVE-4.4.2-64Bit/GarbageCollector/XMC4200_GC/Libraries/XMCLib/inc\xmc_spi.h **** /**
 475:C:/Workspaces/DAVE-4.4.2-64Bit/GarbageCollector/XMC4200_GC/Libraries/XMCLib/inc\xmc_spi.h ****  * @param channel A constant pointer to XMC_USIC_CH_t, pointing to the USIC channel base address.
 476:C:/Workspaces/DAVE-4.4.2-64Bit/GarbageCollector/XMC4200_GC/Libraries/XMCLib/inc\xmc_spi.h ****  * @param mode Communication mode of the SPI, based on this mode TCI(Transmit control information)i
 477:C:/Workspaces/DAVE-4.4.2-64Bit/GarbageCollector/XMC4200_GC/Libraries/XMCLib/inc\xmc_spi.h ****  *             Refer @ref XMC_SPI_CH_MODE_t for valid values.
 478:C:/Workspaces/DAVE-4.4.2-64Bit/GarbageCollector/XMC4200_GC/Libraries/XMCLib/inc\xmc_spi.h ****  *
 479:C:/Workspaces/DAVE-4.4.2-64Bit/GarbageCollector/XMC4200_GC/Libraries/XMCLib/inc\xmc_spi.h ****  * @return None
 480:C:/Workspaces/DAVE-4.4.2-64Bit/GarbageCollector/XMC4200_GC/Libraries/XMCLib/inc\xmc_spi.h ****  *
 481:C:/Workspaces/DAVE-4.4.2-64Bit/GarbageCollector/XMC4200_GC/Libraries/XMCLib/inc\xmc_spi.h ****  * \par<b>Description:</b><br>
 482:C:/Workspaces/DAVE-4.4.2-64Bit/GarbageCollector/XMC4200_GC/Libraries/XMCLib/inc\xmc_spi.h ****  * In Dual and Quad modes,  hardware port control(CCR.HPCEN) mode is enabled. \n\n
 483:C:/Workspaces/DAVE-4.4.2-64Bit/GarbageCollector/XMC4200_GC/Libraries/XMCLib/inc\xmc_spi.h ****  * By enabling this the direction of the data pin is updated by hardware itself. Before transmittin
 484:C:/Workspaces/DAVE-4.4.2-64Bit/GarbageCollector/XMC4200_GC/Libraries/XMCLib/inc\xmc_spi.h ****  * mode to ensure the proper communication.
 485:C:/Workspaces/DAVE-4.4.2-64Bit/GarbageCollector/XMC4200_GC/Libraries/XMCLib/inc\xmc_spi.h ****  * 
 486:C:/Workspaces/DAVE-4.4.2-64Bit/GarbageCollector/XMC4200_GC/Libraries/XMCLib/inc\xmc_spi.h ****  * \par<b>Related APIs:</b><BR>
 487:C:/Workspaces/DAVE-4.4.2-64Bit/GarbageCollector/XMC4200_GC/Libraries/XMCLib/inc\xmc_spi.h ****  * XMC_SPI_CH_Transmit()
 488:C:/Workspaces/DAVE-4.4.2-64Bit/GarbageCollector/XMC4200_GC/Libraries/XMCLib/inc\xmc_spi.h ****  */
 489:C:/Workspaces/DAVE-4.4.2-64Bit/GarbageCollector/XMC4200_GC/Libraries/XMCLib/inc\xmc_spi.h **** __STATIC_INLINE void XMC_SPI_CH_SetTransmitMode(XMC_USIC_CH_t *const channel, const XMC_SPI_CH_MODE
 490:C:/Workspaces/DAVE-4.4.2-64Bit/GarbageCollector/XMC4200_GC/Libraries/XMCLib/inc\xmc_spi.h **** {
 491:C:/Workspaces/DAVE-4.4.2-64Bit/GarbageCollector/XMC4200_GC/Libraries/XMCLib/inc\xmc_spi.h ****   channel->CCR = (channel->CCR & (uint32_t)(~USIC_CH_CCR_HPCEN_Msk)) |
 492:C:/Workspaces/DAVE-4.4.2-64Bit/GarbageCollector/XMC4200_GC/Libraries/XMCLib/inc\xmc_spi.h ****                   (((uint32_t) mode << USIC_CH_CCR_HPCEN_Pos) & (uint32_t)USIC_CH_CCR_HPCEN_Msk);
 493:C:/Workspaces/DAVE-4.4.2-64Bit/GarbageCollector/XMC4200_GC/Libraries/XMCLib/inc\xmc_spi.h **** }
 494:C:/Workspaces/DAVE-4.4.2-64Bit/GarbageCollector/XMC4200_GC/Libraries/XMCLib/inc\xmc_spi.h **** 
 495:C:/Workspaces/DAVE-4.4.2-64Bit/GarbageCollector/XMC4200_GC/Libraries/XMCLib/inc\xmc_spi.h **** /**
 496:C:/Workspaces/DAVE-4.4.2-64Bit/GarbageCollector/XMC4200_GC/Libraries/XMCLib/inc\xmc_spi.h ****  * @param channel A constant pointer to XMC_USIC_CH_t, pointing to the USIC channel base address.
 497:C:/Workspaces/DAVE-4.4.2-64Bit/GarbageCollector/XMC4200_GC/Libraries/XMCLib/inc\xmc_spi.h ****  * @param data Data to be transmitted
 498:C:/Workspaces/DAVE-4.4.2-64Bit/GarbageCollector/XMC4200_GC/Libraries/XMCLib/inc\xmc_spi.h ****  * @param mode Communication mode of the SPI, based on this mode TCI(Transmit control information)i
 499:C:/Workspaces/DAVE-4.4.2-64Bit/GarbageCollector/XMC4200_GC/Libraries/XMCLib/inc\xmc_spi.h ****  *             Refer @ref XMC_SPI_CH_MODE_t for valid values.
 500:C:/Workspaces/DAVE-4.4.2-64Bit/GarbageCollector/XMC4200_GC/Libraries/XMCLib/inc\xmc_spi.h ****  *
 501:C:/Workspaces/DAVE-4.4.2-64Bit/GarbageCollector/XMC4200_GC/Libraries/XMCLib/inc\xmc_spi.h ****  * @return None
 502:C:/Workspaces/DAVE-4.4.2-64Bit/GarbageCollector/XMC4200_GC/Libraries/XMCLib/inc\xmc_spi.h ****  *
 503:C:/Workspaces/DAVE-4.4.2-64Bit/GarbageCollector/XMC4200_GC/Libraries/XMCLib/inc\xmc_spi.h ****  * \par<b>Description:</b><br>
 504:C:/Workspaces/DAVE-4.4.2-64Bit/GarbageCollector/XMC4200_GC/Libraries/XMCLib/inc\xmc_spi.h ****  * Puts the data into FIFO, if FIFO mode is enabled or else into standard buffer, by setting the pr
 505:C:/Workspaces/DAVE-4.4.2-64Bit/GarbageCollector/XMC4200_GC/Libraries/XMCLib/inc\xmc_spi.h ****  * In Dual and Quad modes,  hardware port control(CCR.HPCEN) mode is enabled. By enabling this the 
 506:C:/Workspaces/DAVE-4.4.2-64Bit/GarbageCollector/XMC4200_GC/Libraries/XMCLib/inc\xmc_spi.h ****  * pin is updated by hardware itself. TCI(Transmit Control Information) allows dynamic control of b
 507:C:/Workspaces/DAVE-4.4.2-64Bit/GarbageCollector/XMC4200_GC/Libraries/XMCLib/inc\xmc_spi.h ****  * and pin direction during data transfers by writing to SCTR.DSM and SCTR.HPCDIR bit fields. To su
 508:C:/Workspaces/DAVE-4.4.2-64Bit/GarbageCollector/XMC4200_GC/Libraries/XMCLib/inc\xmc_spi.h ****  * update, TCSR.HPCMD(Hardware Port control) will be enabled during the initialization using XMC_SP
 509:C:/Workspaces/DAVE-4.4.2-64Bit/GarbageCollector/XMC4200_GC/Libraries/XMCLib/inc\xmc_spi.h ****  * 
 510:C:/Workspaces/DAVE-4.4.2-64Bit/GarbageCollector/XMC4200_GC/Libraries/XMCLib/inc\xmc_spi.h ****  * 
 511:C:/Workspaces/DAVE-4.4.2-64Bit/GarbageCollector/XMC4200_GC/Libraries/XMCLib/inc\xmc_spi.h ****  * \par<b>Related APIs:</b><BR>
 512:C:/Workspaces/DAVE-4.4.2-64Bit/GarbageCollector/XMC4200_GC/Libraries/XMCLib/inc\xmc_spi.h ****  * XMC_SPI_CH_Receive()
 513:C:/Workspaces/DAVE-4.4.2-64Bit/GarbageCollector/XMC4200_GC/Libraries/XMCLib/inc\xmc_spi.h ****  */
 514:C:/Workspaces/DAVE-4.4.2-64Bit/GarbageCollector/XMC4200_GC/Libraries/XMCLib/inc\xmc_spi.h **** void XMC_SPI_CH_Transmit(XMC_USIC_CH_t *const channel, const uint16_t data, const XMC_SPI_CH_MODE_t
 515:C:/Workspaces/DAVE-4.4.2-64Bit/GarbageCollector/XMC4200_GC/Libraries/XMCLib/inc\xmc_spi.h **** 
 516:C:/Workspaces/DAVE-4.4.2-64Bit/GarbageCollector/XMC4200_GC/Libraries/XMCLib/inc\xmc_spi.h **** /**
 517:C:/Workspaces/DAVE-4.4.2-64Bit/GarbageCollector/XMC4200_GC/Libraries/XMCLib/inc\xmc_spi.h ****  * @param channel A constant pointer to XMC_USIC_CH_t, pointing to the USIC channel base address.
 518:C:/Workspaces/DAVE-4.4.2-64Bit/GarbageCollector/XMC4200_GC/Libraries/XMCLib/inc\xmc_spi.h ****  * @param mode Communication mode of the SPI, based on this mode TCI(Transmit control information)i
 519:C:/Workspaces/DAVE-4.4.2-64Bit/GarbageCollector/XMC4200_GC/Libraries/XMCLib/inc\xmc_spi.h ****  *             Refer @ref XMC_SPI_CH_MODE_t for valid values.      
 520:C:/Workspaces/DAVE-4.4.2-64Bit/GarbageCollector/XMC4200_GC/Libraries/XMCLib/inc\xmc_spi.h ****  *
 521:C:/Workspaces/DAVE-4.4.2-64Bit/GarbageCollector/XMC4200_GC/Libraries/XMCLib/inc\xmc_spi.h ****  * @return None
 522:C:/Workspaces/DAVE-4.4.2-64Bit/GarbageCollector/XMC4200_GC/Libraries/XMCLib/inc\xmc_spi.h ****  *
 523:C:/Workspaces/DAVE-4.4.2-64Bit/GarbageCollector/XMC4200_GC/Libraries/XMCLib/inc\xmc_spi.h ****  * \par<b>Description:</b><br>
 524:C:/Workspaces/DAVE-4.4.2-64Bit/GarbageCollector/XMC4200_GC/Libraries/XMCLib/inc\xmc_spi.h ****  * Transmits a dummy data(FFFFH) to provide clock for slave and receives the data from the slave.\n
 525:C:/Workspaces/DAVE-4.4.2-64Bit/GarbageCollector/XMC4200_GC/Libraries/XMCLib/inc\xmc_spi.h ****  * XMC_SPI_CH_Receive() receives the data and places it into buffer based on the FIFO selection. Af
 526:C:/Workspaces/DAVE-4.4.2-64Bit/GarbageCollector/XMC4200_GC/Libraries/XMCLib/inc\xmc_spi.h ****  * XMC_SPI_CH_GetReceivedData() can be invoked to read the data from the buffers.
 527:C:/Workspaces/DAVE-4.4.2-64Bit/GarbageCollector/XMC4200_GC/Libraries/XMCLib/inc\xmc_spi.h ****  * 
 528:C:/Workspaces/DAVE-4.4.2-64Bit/GarbageCollector/XMC4200_GC/Libraries/XMCLib/inc\xmc_spi.h ****  * \par<b>Related APIs:</b><BR>
 529:C:/Workspaces/DAVE-4.4.2-64Bit/GarbageCollector/XMC4200_GC/Libraries/XMCLib/inc\xmc_spi.h ****  * XMC_SPI_CH_GetReceivedDaa()
 530:C:/Workspaces/DAVE-4.4.2-64Bit/GarbageCollector/XMC4200_GC/Libraries/XMCLib/inc\xmc_spi.h ****  */
 531:C:/Workspaces/DAVE-4.4.2-64Bit/GarbageCollector/XMC4200_GC/Libraries/XMCLib/inc\xmc_spi.h **** __STATIC_INLINE void XMC_SPI_CH_Receive(XMC_USIC_CH_t *const channel, const XMC_SPI_CH_MODE_t mode)
 532:C:/Workspaces/DAVE-4.4.2-64Bit/GarbageCollector/XMC4200_GC/Libraries/XMCLib/inc\xmc_spi.h **** {
 533:C:/Workspaces/DAVE-4.4.2-64Bit/GarbageCollector/XMC4200_GC/Libraries/XMCLib/inc\xmc_spi.h ****   /* Transmit dummy data */
 534:C:/Workspaces/DAVE-4.4.2-64Bit/GarbageCollector/XMC4200_GC/Libraries/XMCLib/inc\xmc_spi.h ****   XMC_SPI_CH_Transmit(channel, (uint16_t)0xffffU, (XMC_SPI_CH_MODE_t)((uint16_t)mode & 0xfffbU));
 535:C:/Workspaces/DAVE-4.4.2-64Bit/GarbageCollector/XMC4200_GC/Libraries/XMCLib/inc\xmc_spi.h **** }
 536:C:/Workspaces/DAVE-4.4.2-64Bit/GarbageCollector/XMC4200_GC/Libraries/XMCLib/inc\xmc_spi.h **** 
 537:C:/Workspaces/DAVE-4.4.2-64Bit/GarbageCollector/XMC4200_GC/Libraries/XMCLib/inc\xmc_spi.h **** /**
 538:C:/Workspaces/DAVE-4.4.2-64Bit/GarbageCollector/XMC4200_GC/Libraries/XMCLib/inc\xmc_spi.h ****  * @param channel A constant pointer to XMC_USIC_CH_t, pointing to the USIC channel base address.
 539:C:/Workspaces/DAVE-4.4.2-64Bit/GarbageCollector/XMC4200_GC/Libraries/XMCLib/inc\xmc_spi.h ****  *
 540:C:/Workspaces/DAVE-4.4.2-64Bit/GarbageCollector/XMC4200_GC/Libraries/XMCLib/inc\xmc_spi.h ****  * @return uint16_t Data read from the receive buffer.
 541:C:/Workspaces/DAVE-4.4.2-64Bit/GarbageCollector/XMC4200_GC/Libraries/XMCLib/inc\xmc_spi.h ****  *
 542:C:/Workspaces/DAVE-4.4.2-64Bit/GarbageCollector/XMC4200_GC/Libraries/XMCLib/inc\xmc_spi.h ****  * \par<b>Description:</b><br>
 543:C:/Workspaces/DAVE-4.4.2-64Bit/GarbageCollector/XMC4200_GC/Libraries/XMCLib/inc\xmc_spi.h ****  * Reads data from the receive buffer based on the FIFO selection.\n\n
 544:C:/Workspaces/DAVE-4.4.2-64Bit/GarbageCollector/XMC4200_GC/Libraries/XMCLib/inc\xmc_spi.h ****  * Invocation of XMC_SPI_CH_Receive() receives the data and place it into receive buffer. After rec
 545:C:/Workspaces/DAVE-4.4.2-64Bit/GarbageCollector/XMC4200_GC/Libraries/XMCLib/inc\xmc_spi.h ****  * XMC_SPI_CH_GetReceivedData() can be used to read the data from the buffer.
 546:C:/Workspaces/DAVE-4.4.2-64Bit/GarbageCollector/XMC4200_GC/Libraries/XMCLib/inc\xmc_spi.h ****  * 
 547:C:/Workspaces/DAVE-4.4.2-64Bit/GarbageCollector/XMC4200_GC/Libraries/XMCLib/inc\xmc_spi.h ****  * \par<b>Related APIs:</b><BR>
 548:C:/Workspaces/DAVE-4.4.2-64Bit/GarbageCollector/XMC4200_GC/Libraries/XMCLib/inc\xmc_spi.h ****  * XMC_SPI_CH_Receive()
 549:C:/Workspaces/DAVE-4.4.2-64Bit/GarbageCollector/XMC4200_GC/Libraries/XMCLib/inc\xmc_spi.h ****  */
 550:C:/Workspaces/DAVE-4.4.2-64Bit/GarbageCollector/XMC4200_GC/Libraries/XMCLib/inc\xmc_spi.h **** uint16_t XMC_SPI_CH_GetReceivedData(XMC_USIC_CH_t *const channel);
 551:C:/Workspaces/DAVE-4.4.2-64Bit/GarbageCollector/XMC4200_GC/Libraries/XMCLib/inc\xmc_spi.h **** 
 552:C:/Workspaces/DAVE-4.4.2-64Bit/GarbageCollector/XMC4200_GC/Libraries/XMCLib/inc\xmc_spi.h **** /**
 553:C:/Workspaces/DAVE-4.4.2-64Bit/GarbageCollector/XMC4200_GC/Libraries/XMCLib/inc\xmc_spi.h ****  * @param channel A constant pointer to XMC_USIC_CH_t, pointing to the USIC channel base address.
 554:C:/Workspaces/DAVE-4.4.2-64Bit/GarbageCollector/XMC4200_GC/Libraries/XMCLib/inc\xmc_spi.h ****  *
 555:C:/Workspaces/DAVE-4.4.2-64Bit/GarbageCollector/XMC4200_GC/Libraries/XMCLib/inc\xmc_spi.h ****  * @return None
 556:C:/Workspaces/DAVE-4.4.2-64Bit/GarbageCollector/XMC4200_GC/Libraries/XMCLib/inc\xmc_spi.h ****  *
 557:C:/Workspaces/DAVE-4.4.2-64Bit/GarbageCollector/XMC4200_GC/Libraries/XMCLib/inc\xmc_spi.h ****  * \par<b>Description:</b><br>
 558:C:/Workspaces/DAVE-4.4.2-64Bit/GarbageCollector/XMC4200_GC/Libraries/XMCLib/inc\xmc_spi.h ****  * Set the order of data transfer from LSB to MSB, by clearing SCTR.SDIR bit.\n\n
 559:C:/Workspaces/DAVE-4.4.2-64Bit/GarbageCollector/XMC4200_GC/Libraries/XMCLib/inc\xmc_spi.h ****  * This is typically based on the slave settings. Invoke XMC_SPI_CH_SetBitOrderLsbFirst() to set di
 560:C:/Workspaces/DAVE-4.4.2-64Bit/GarbageCollector/XMC4200_GC/Libraries/XMCLib/inc\xmc_spi.h ****  * the program.
 561:C:/Workspaces/DAVE-4.4.2-64Bit/GarbageCollector/XMC4200_GC/Libraries/XMCLib/inc\xmc_spi.h ****  *
 562:C:/Workspaces/DAVE-4.4.2-64Bit/GarbageCollector/XMC4200_GC/Libraries/XMCLib/inc\xmc_spi.h ****  * \par<b>Related APIs:</b><BR>
 563:C:/Workspaces/DAVE-4.4.2-64Bit/GarbageCollector/XMC4200_GC/Libraries/XMCLib/inc\xmc_spi.h ****  * XMC_SPI_CH_SetBitOrderMsbFirst()
 564:C:/Workspaces/DAVE-4.4.2-64Bit/GarbageCollector/XMC4200_GC/Libraries/XMCLib/inc\xmc_spi.h ****  */
 565:C:/Workspaces/DAVE-4.4.2-64Bit/GarbageCollector/XMC4200_GC/Libraries/XMCLib/inc\xmc_spi.h **** __STATIC_INLINE void XMC_SPI_CH_SetBitOrderLsbFirst(XMC_USIC_CH_t *const channel)
 566:C:/Workspaces/DAVE-4.4.2-64Bit/GarbageCollector/XMC4200_GC/Libraries/XMCLib/inc\xmc_spi.h **** {
 303              	 .loc 4 566 0
 304              	 .cfi_startproc
 305              	 
 306              	 
 307              	 
 308 0000 80B4     	 push {r7}
 309              	.LCFI33:
 310              	 .cfi_def_cfa_offset 4
 311              	 .cfi_offset 7,-4
 312 0002 83B0     	 sub sp,sp,#12
 313              	.LCFI34:
 314              	 .cfi_def_cfa_offset 16
 315 0004 00AF     	 add r7,sp,#0
 316              	.LCFI35:
 317              	 .cfi_def_cfa_register 7
 318 0006 7860     	 str r0,[r7,#4]
 567:C:/Workspaces/DAVE-4.4.2-64Bit/GarbageCollector/XMC4200_GC/Libraries/XMCLib/inc\xmc_spi.h ****   channel->SCTR &= (uint32_t)~USIC_CH_SCTR_SDIR_Msk;
 319              	 .loc 4 567 0
 320 0008 7B68     	 ldr r3,[r7,#4]
 321 000a 5B6B     	 ldr r3,[r3,#52]
 322 000c 23F00102 	 bic r2,r3,#1
 323 0010 7B68     	 ldr r3,[r7,#4]
 324 0012 5A63     	 str r2,[r3,#52]
 568:C:/Workspaces/DAVE-4.4.2-64Bit/GarbageCollector/XMC4200_GC/Libraries/XMCLib/inc\xmc_spi.h **** }
 325              	 .loc 4 568 0
 326 0014 0C37     	 adds r7,r7,#12
 327              	.LCFI36:
 328              	 .cfi_def_cfa_offset 4
 329 0016 BD46     	 mov sp,r7
 330              	.LCFI37:
 331              	 .cfi_def_cfa_register 13
 332              	 
 333 0018 5DF8047B 	 ldr r7,[sp],#4
 334              	.LCFI38:
 335              	 .cfi_restore 7
 336              	 .cfi_def_cfa_offset 0
 337 001c 7047     	 bx lr
 338              	 .cfi_endproc
 339              	.LFE373:
 341              	 .comm direction_status,2,2
 342              	 .comm clamp_status,2,2
 343              	 .comm pin_status,4,4
 344              	 .global green_led
 345 001e 00BF     	 .section .rodata.green_led,"a",%progbits
 346              	 .align 1
 349              	green_led:
 350 0000 FF00     	 .short 255
 351              	 .global red_led
 352              	 .section .rodata.red_led,"a",%progbits
 353              	 .align 1
 356              	red_led:
 357 0000 0000     	 .space 2
 358              	 .global xDelay
 359              	 .section .rodata.xDelay,"a",%progbits
 360              	 .align 2
 363              	xDelay:
 364 0000 14000000 	 .word 20
 365              	 .section .rodata.TLE94112EL_0,"a",%progbits
 366              	 .align 2
 369              	TLE94112EL_0:
 370 0000 00000000 	 .word tle94112el_enable
 371 0004 00000000 	 .word tle94112el_disable
 372 0008 00000000 	 .word tle94112el_spi_transfer
 373              	 .global FORWARD_Handle
 374              	 .section .bss.FORWARD_Handle,"aw",%nobits
 375              	 .align 2
 378              	FORWARD_Handle:
 379 0000 00000000 	 .space 4
 380              	 .global BACKWARD_Handle
 381              	 .section .bss.BACKWARD_Handle,"aw",%nobits
 382              	 .align 2
 385              	BACKWARD_Handle:
 386 0000 00000000 	 .space 4
 387              	 .global LEFT_Handle
 388              	 .section .bss.LEFT_Handle,"aw",%nobits
 389              	 .align 2
 392              	LEFT_Handle:
 393 0000 00000000 	 .space 4
 394              	 .global RIGHT_Handle
 395              	 .section .bss.RIGHT_Handle,"aw",%nobits
 396              	 .align 2
 399              	RIGHT_Handle:
 400 0000 00000000 	 .space 4
 401              	 .global UP_Handle
 402              	 .section .bss.UP_Handle,"aw",%nobits
 403              	 .align 2
 406              	UP_Handle:
 407 0000 00000000 	 .space 4
 408              	 .global DOWN_Handle
 409              	 .section .bss.DOWN_Handle,"aw",%nobits
 410              	 .align 2
 413              	DOWN_Handle:
 414 0000 00000000 	 .space 4
 415              	 .global OPEN_Handle
 416              	 .section .bss.OPEN_Handle,"aw",%nobits
 417              	 .align 2
 420              	OPEN_Handle:
 421 0000 00000000 	 .space 4
 422              	 .global CLOSE_Handle
 423              	 .section .bss.CLOSE_Handle,"aw",%nobits
 424              	 .align 2
 427              	CLOSE_Handle:
 428 0000 00000000 	 .space 4
 429              	 .global HOLD_Handle
 430              	 .section .bss.HOLD_Handle,"aw",%nobits
 431              	 .align 2
 434              	HOLD_Handle:
 435 0000 00000000 	 .space 4
 436              	 .global ROTATE_Handle
 437              	 .section .bss.ROTATE_Handle,"aw",%nobits
 438              	 .align 2
 441              	ROTATE_Handle:
 442 0000 00000000 	 .space 4
 443              	 .global DIRECTION_Handle
 444              	 .section .bss.DIRECTION_Handle,"aw",%nobits
 445              	 .align 2
 448              	DIRECTION_Handle:
 449 0000 00000000 	 .space 4
 450              	 .global CLAMP_Handle
 451              	 .section .bss.CLAMP_Handle,"aw",%nobits
 452              	 .align 2
 455              	CLAMP_Handle:
 456 0000 00000000 	 .space 4
 457              	 .comm FORWARD_interruptSemaphore,4,4
 458              	 .comm BACKWARD_interruptSemaphore,4,4
 459              	 .comm LEFT_interruptSemaphore,4,4
 460              	 .comm RIGHT_interruptSemaphore,4,4
 461              	 .comm UP_interruptSemaphore,4,4
 462              	 .comm DOWN_interruptSemaphore,4,4
 463              	 .comm OPEN_interruptSemaphore,4,4
 464              	 .comm CLOSE_interruptSemaphore,4,4
 465              	 .comm HOLD_interruptSemaphore,4,4
 466              	 .comm ROTATE_interruptSemaphore,4,4
 467              	 .comm DIRECTION_interruptSemaphore,4,4
 468              	 .comm CLAMP_interruptSemaphore,4,4
 469              	 .section .text.FORWARD_Task,"ax",%progbits
 470              	 .align 2
 471              	 .global FORWARD_Task
 472              	 .thumb
 473              	 .thumb_func
 475              	FORWARD_Task:
 476              	.LFB430:
 477              	 .file 5 "../main.c"
   1:../main.c     **** /*
   2:../main.c     ****  * main.c
   3:../main.c     ****  *
   4:../main.c     ****  *  Created on: 2020 Sep 02 12:52:04
   5:../main.c     ****  *  Author: FORGE-15R
   6:../main.c     ****  */
   7:../main.c     **** 
   8:../main.c     **** 
   9:../main.c     **** 
  10:../main.c     **** 
  11:../main.c     **** #include <DAVE.h>                 //Declarations from DAVE Code Generation (includes SFR declaratio
  12:../main.c     **** #include "ext_lib/base.h"
  13:../main.c     **** 
  14:../main.c     **** /**
  15:../main.c     **** 
  16:../main.c     ****  * @brief main() - Application entry point
  17:../main.c     ****  *
  18:../main.c     ****  * <b>Details of function</b><br>
  19:../main.c     ****  * This routine is the application entry point. It is invoked by the device startup code. It is res
  20:../main.c     ****  * invoking the APP initialization dispatcher routine - DAVE_Init() and hosting the place-holder fo
  21:../main.c     ****  * code.
  22:../main.c     ****  */
  23:../main.c     **** 
  24:../main.c     **** volatile uint16_t direction_status;
  25:../main.c     **** volatile uint16_t clamp_status;
  26:../main.c     **** volatile uint32_t pin_status;
  27:../main.c     **** const uint16_t green_led = 0b11111111;
  28:../main.c     **** const uint16_t red_led = 0b00000000;
  29:../main.c     **** const TickType_t xDelay = 20/portTICK_PERIOD_MS;
  30:../main.c     **** 
  31:../main.c     **** 
  32:../main.c     **** 
  33:../main.c     **** static void tle94112el_enable(void);
  34:../main.c     **** static void tle94112el_disable(void);
  35:../main.c     **** static int32_t tle94112el_spi_transfer(uint8_t *tx_data, uint8_t *rx_data);
  36:../main.c     **** 
  37:../main.c     **** static const TLE94112EL_t TLE94112EL_0 =
  38:../main.c     **** 
  39:../main.c     ****   {
  40:../main.c     **** 
  41:../main.c     ****     .enable = tle94112el_enable,
  42:../main.c     **** 
  43:../main.c     ****     .disable = tle94112el_disable,
  44:../main.c     **** 
  45:../main.c     ****     .spi_transfer = tle94112el_spi_transfer
  46:../main.c     **** 
  47:../main.c     ****   };
  48:../main.c     **** 
  49:../main.c     **** TaskHandle_t FORWARD_Handle = NULL;
  50:../main.c     **** TaskHandle_t BACKWARD_Handle = NULL;
  51:../main.c     **** TaskHandle_t LEFT_Handle = NULL;
  52:../main.c     **** TaskHandle_t RIGHT_Handle = NULL;
  53:../main.c     **** TaskHandle_t UP_Handle = NULL;
  54:../main.c     **** TaskHandle_t DOWN_Handle = NULL;
  55:../main.c     **** TaskHandle_t OPEN_Handle = NULL;
  56:../main.c     **** TaskHandle_t CLOSE_Handle = NULL;
  57:../main.c     **** TaskHandle_t HOLD_Handle = NULL;
  58:../main.c     **** TaskHandle_t ROTATE_Handle = NULL;
  59:../main.c     **** TaskHandle_t DIRECTION_Handle = NULL;
  60:../main.c     **** TaskHandle_t CLAMP_Handle = NULL;
  61:../main.c     **** 
  62:../main.c     **** SemaphoreHandle_t FORWARD_interruptSemaphore;
  63:../main.c     **** SemaphoreHandle_t BACKWARD_interruptSemaphore;
  64:../main.c     **** SemaphoreHandle_t LEFT_interruptSemaphore;
  65:../main.c     **** SemaphoreHandle_t RIGHT_interruptSemaphore;
  66:../main.c     **** SemaphoreHandle_t UP_interruptSemaphore;
  67:../main.c     **** SemaphoreHandle_t DOWN_interruptSemaphore;
  68:../main.c     **** SemaphoreHandle_t OPEN_interruptSemaphore;
  69:../main.c     **** SemaphoreHandle_t CLOSE_interruptSemaphore;
  70:../main.c     **** SemaphoreHandle_t HOLD_interruptSemaphore;
  71:../main.c     **** SemaphoreHandle_t ROTATE_interruptSemaphore;
  72:../main.c     **** SemaphoreHandle_t DIRECTION_interruptSemaphore;
  73:../main.c     **** SemaphoreHandle_t CLAMP_interruptSemaphore;
  74:../main.c     **** 
  75:../main.c     **** 
  76:../main.c     **** void FORWARD_Task(void *p){
 478              	 .loc 5 76 0
 479              	 .cfi_startproc
 480              	 
 481              	 
 482 0000 80B5     	 push {r7,lr}
 483              	.LCFI39:
 484              	 .cfi_def_cfa_offset 8
 485              	 .cfi_offset 7,-8
 486              	 .cfi_offset 14,-4
 487 0002 82B0     	 sub sp,sp,#8
 488              	.LCFI40:
 489              	 .cfi_def_cfa_offset 16
 490 0004 00AF     	 add r7,sp,#0
 491              	.LCFI41:
 492              	 .cfi_def_cfa_register 7
 493 0006 7860     	 str r0,[r7,#4]
 494              	.L13:
  77:../main.c     **** 
  78:../main.c     **** 	while(1){
  79:../main.c     **** 
  80:../main.c     **** 		if (xSemaphoreTake(FORWARD_interruptSemaphore, portMAX_DELAY) == pdPASS){
 495              	 .loc 5 80 0
 496 0008 334B     	 ldr r3,.L14
 497 000a 1B68     	 ldr r3,[r3]
 498 000c 1846     	 mov r0,r3
 499 000e 4FF0FF31 	 mov r1,#-1
 500 0012 FFF7FEFF 	 bl xQueueSemaphoreTake
 501 0016 0346     	 mov r3,r0
 502 0018 012B     	 cmp r3,#1
 503 001a 5CD1     	 bne .L11
  81:../main.c     **** 
  82:../main.c     **** 			pin_status = PIN_INTERRUPT_GetPinValue(&DIRECTION_INTERRUPT);
 504              	 .loc 5 82 0
 505 001c 2F48     	 ldr r0,.L14+4
 506 001e FFF7FEFF 	 bl PIN_INTERRUPT_GetPinValue
 507 0022 0246     	 mov r2,r0
 508 0024 2E4B     	 ldr r3,.L14+8
 509 0026 1A60     	 str r2,[r3]
  83:../main.c     **** 			if(pin_status==1){
 510              	 .loc 5 83 0
 511 0028 2D4B     	 ldr r3,.L14+8
 512 002a 1B68     	 ldr r3,[r3]
 513 002c 012B     	 cmp r3,#1
 514 002e 29D1     	 bne .L12
  84:../main.c     **** 				//FORWARD
  85:../main.c     **** 				TLE94112EL_SetHBRegdata(&TLE94112EL_0, 0x01, 0x99);
 515              	 .loc 5 85 0
 516 0030 2C48     	 ldr r0,.L14+12
 517 0032 0121     	 movs r1,#1
 518 0034 9922     	 movs r2,#153
 519 0036 FFF7FEFF 	 bl TLE94112EL_SetHBRegdata
  86:../main.c     **** 				  vTaskDelay( xDelay );
 520              	 .loc 5 86 0
 521 003a 1423     	 movs r3,#20
 522 003c 1846     	 mov r0,r3
 523 003e FFF7FEFF 	 bl vTaskDelay
  87:../main.c     **** 
  88:../main.c     **** 					TLE94112EL_SetHBRegdata(&TLE94112EL_0, 0x02, 0x99);
 524              	 .loc 5 88 0
 525 0042 2848     	 ldr r0,.L14+12
 526 0044 0221     	 movs r1,#2
 527 0046 9922     	 movs r2,#153
 528 0048 FFF7FEFF 	 bl TLE94112EL_SetHBRegdata
  89:../main.c     **** 					  vTaskDelay( xDelay );
 529              	 .loc 5 89 0
 530 004c 1423     	 movs r3,#20
 531 004e 1846     	 mov r0,r3
 532 0050 FFF7FEFF 	 bl vTaskDelay
  90:../main.c     **** 
  91:../main.c     **** 					  TLE94112EL_SetHBRegdata(&TLE94112EL_0, 0x03, 0x99);
 533              	 .loc 5 91 0
 534 0054 2348     	 ldr r0,.L14+12
 535 0056 0321     	 movs r1,#3
 536 0058 9922     	 movs r2,#153
 537 005a FFF7FEFF 	 bl TLE94112EL_SetHBRegdata
  92:../main.c     **** 				  vTaskDelay( xDelay );
 538              	 .loc 5 92 0
 539 005e 1423     	 movs r3,#20
 540 0060 1846     	 mov r0,r3
 541 0062 FFF7FEFF 	 bl vTaskDelay
  93:../main.c     **** 
  94:../main.c     **** 					 DIGITAL_IO_SetOutputHigh(&MOTOR_HIGH);
 542              	 .loc 5 94 0
 543 0066 2048     	 ldr r0,.L14+16
 544 0068 FFF7FEFF 	 bl DIGITAL_IO_SetOutputHigh
  95:../main.c     **** 					  vTaskDelay( xDelay );
 545              	 .loc 5 95 0
 546 006c 1423     	 movs r3,#20
 547 006e 1846     	 mov r0,r3
 548 0070 FFF7FEFF 	 bl vTaskDelay
  96:../main.c     **** 
  97:../main.c     **** 					 DIGITAL_IO_SetOutputLow(&MOTOR_LOW);
 549              	 .loc 5 97 0
 550 0074 1D48     	 ldr r0,.L14+20
 551 0076 FFF7FEFF 	 bl DIGITAL_IO_SetOutputLow
  98:../main.c     **** 					  vTaskDelay( xDelay );
 552              	 .loc 5 98 0
 553 007a 1423     	 movs r3,#20
 554 007c 1846     	 mov r0,r3
 555 007e FFF7FEFF 	 bl vTaskDelay
 556 0082 28E0     	 b .L11
 557              	.L12:
  99:../main.c     **** 
 100:../main.c     **** 			}
 101:../main.c     **** 
 102:../main.c     **** 			else{
 103:../main.c     **** 				//stop
 104:../main.c     **** 				TLE94112EL_SetHBRegdata(&TLE94112EL_0, 0x01, 0x00);
 558              	 .loc 5 104 0
 559 0084 1748     	 ldr r0,.L14+12
 560 0086 0121     	 movs r1,#1
 561 0088 0022     	 movs r2,#0
 562 008a FFF7FEFF 	 bl TLE94112EL_SetHBRegdata
 105:../main.c     **** 
 106:../main.c     **** 				  vTaskDelay( xDelay );
 563              	 .loc 5 106 0
 564 008e 1423     	 movs r3,#20
 565 0090 1846     	 mov r0,r3
 566 0092 FFF7FEFF 	 bl vTaskDelay
 107:../main.c     **** 
 108:../main.c     **** 					TLE94112EL_SetHBRegdata(&TLE94112EL_0, 0x02, 0x00);
 567              	 .loc 5 108 0
 568 0096 1348     	 ldr r0,.L14+12
 569 0098 0221     	 movs r1,#2
 570 009a 0022     	 movs r2,#0
 571 009c FFF7FEFF 	 bl TLE94112EL_SetHBRegdata
 109:../main.c     **** 					  vTaskDelay( xDelay );
 572              	 .loc 5 109 0
 573 00a0 1423     	 movs r3,#20
 574 00a2 1846     	 mov r0,r3
 575 00a4 FFF7FEFF 	 bl vTaskDelay
 110:../main.c     **** 
 111:../main.c     **** 				TLE94112EL_SetHBRegdata(&TLE94112EL_0, 0x03, 0x00);
 576              	 .loc 5 111 0
 577 00a8 0E48     	 ldr r0,.L14+12
 578 00aa 0321     	 movs r1,#3
 579 00ac 0022     	 movs r2,#0
 580 00ae FFF7FEFF 	 bl TLE94112EL_SetHBRegdata
 112:../main.c     **** 				  vTaskDelay( xDelay );
 581              	 .loc 5 112 0
 582 00b2 1423     	 movs r3,#20
 583 00b4 1846     	 mov r0,r3
 584 00b6 FFF7FEFF 	 bl vTaskDelay
 113:../main.c     **** 
 114:../main.c     **** 					 DIGITAL_IO_SetOutputLow(&MOTOR_HIGH);
